((dp1
I0
c__builtin__
set
p2
((lp3
I1
aI7
aI520
aI9
aI10
aI599
aI12
aI526
aI16
aI18
aI21
aI538
aI27
aI540
aI543
aI32
aI33
aI34
aI36
aI39
aI40
aI41
aI42
aI43
aI562
aI51
aI52
aI53
aI54
aI568
aI57
aI58
aI61
aI63
aI64
aI65
aI67
aI580
aI71
aI72
aI73
aI78
aI80
aI82
aI84
aI86
aI87
aI90
aI91
aI92
aI93
aI96
aI528
aI99
aI100
aI871
aI109
aI114
aI118
aI107
aI646
aI666
aI539
aI28
aI181
aI190
aI705
aI201
aI739
aI740
aI229
aI742
aI748
aI751
aI752
aI757
aI250
aI763
aI770
aI771
aI773
aI267
aI787
aI283
aI50
aI818
aI324
aI335
aI345
aI347
aI357
aI359
aI360
aI371
aI379
aI576
aI390
aI397
aI408
aI403
aI405
aI920
aI922
aI239
aI419
aI422
aI583
aI947
aI959
aI457
aI463
aI169
aI596
atRp4
sI1
g2
((lp5
I385
aI391
aI21
aI666
aI671
aI347
aI292
aI40
aI54
aI58
aI63
aI326
aI73
aI80
aI82
aI599
aI90
aI91
aI92
aI96
aI100
aI102
aI103
aI104
aI105
aI871
aI239
aI118
aI888
atRp6
sI7
g2
((lp7
I262
aI18
aI21
aI27
aI33
aI34
aI568
aI187
aI63
aI64
aI72
aI73
aI847
aI82
aI102
aI107
aI108
aI109
aI113
aI114
aI757
aI118
aI378
aI255
aI383
atRp8
sI9
g2
((lp9
I771
aI132
aI748
aI398
aI18
aI788
aI661
aI27
aI751
aI669
aI798
aI543
aI39
aI41
aI172
aI175
aI50
aI51
aI949
aI786
aI53
aI958
aI959
aI964
aI73
aI972
aI974
aI80
aI526
aI947
aI78
aI96
aI100
aI357
aI102
aI107
aI364
aI109
aI367
aI758
aI379
aI21
atRp10
sI10
g2
((lp11
I160
aI161
aI162
aI102
aI73
aI78
aI757
aI152
aI252
aI158
aI543
atRp12
sI12
g2
((lp13
I32
aI417
aI34
aI100
aI118
aI102
aI40
aI41
aI78
aI751
aI80
aI51
aI54
aI58
aI63
atRp14
sI16
g2
((lp15
I770
aI391
aI403
aI495
aI669
aI676
aI41
aI43
aI172
aI173
aI174
aI175
aI176
aI177
aI50
aI179
aI181
aI440
aI185
aI61
aI63
aI65
aI964
aI71
aI72
aI73
aI96
aI102
aI748
aI711
aI239
aI169
atRp16
sI18
g2
((lp17
I0
aI132
aI7
aI21
aI278
aI538
aI539
aI540
aI543
aI32
aI283
aI39
aI52
aI58
aI187
aI190
aI191
aI705
aI197
aI113
aI72
aI201
aI330
aI204
aI205
aI333
aI80
aI211
aI215
aI216
aI219
aI96
aI100
aI102
aI359
aI63
aI364
aI109
aI319
aI757
aI251
atRp18
sI21
g2
((lp19
I1
aI391
aI18
aI540
aI543
aI32
aI34
aI676
aI40
aI28
aI43
aI562
aI841
aI58
aI63
aI965
aI72
aI73
aI205
aI80
aI228
aI219
aI221
aI96
aI225
aI227
aI100
aI229
aI102
aI234
aI107
aI239
aI240
aI114
aI757
aI254
atRp20
sI27
g2
((lp21
I256
aI257
aI770
aI259
aI260
aI261
aI262
aI9
aI266
aI18
aI540
aI669
aI965
aI41
aI265
aI757
aI197
aI73
aI847
aI100
aI102
aI63
aI109
aI114
aI245
aI247
aI250
aI251
aI252
aI253
aI254
aI255
atRp22
sI28
g2
((lp23
I32
aI417
aI34
aI771
aI100
aI357
aI102
aI96
aI40
aI73
aI267
aI908
aI270
aI80
aI787
aI21
aI41
aI57
aI58
aI348
aI61
atRp24
sI32
g2
((lp25
I12
aI18
aI278
aI280
aI281
aI282
aI283
aI673
aI39
aI41
aI42
aI177
aI440
aI58
aI187
aI63
aI576
aI72
aI73
aI80
aI86
aI92
aI93
aI100
aI102
aI757
atRp26
sI33
g2
((lp27
I512
aI770
aI7
aI567
aI18
aI926
aI291
aI292
aI677
aI294
aI39
aI296
aI298
aI43
aI301
aI302
aI303
aI304
aI305
aI50
aI307
aI52
aI311
aI440
aI313
aI315
aI317
aI319
aI320
aI705
aI324
aI326
aI328
aI330
aI331
aI333
aI334
aI335
aI312
aI82
aI470
aI93
aI293
aI100
aI357
aI102
aI306
aI757
aI887
aI890
aI63
aI382
atRp28
sI34
g2
((lp29
I100
aI102
aI41
aI82
aI50
aI440
aI58
aI63
atRp30
sI36
g2
((lp31
I520
aI18
aI920
aI33
aI292
aI294
aI92
aI568
aI313
aI58
aI64
aI583
aI592
aI341
aI345
aI90
aI347
aI348
aI99
aI100
aI102
aI118
atRp32
sI39
g2
((lp33
I385
aI65
aI495
aI33
aI292
aI296
aI43
aI255
aI93
aI313
aI315
aI705
aI673
aI96
aI330
aI845
aI334
aI82
aI468
aI859
aI860
aI349
aI351
aI480
aI353
aI482
aI355
aI356
aI357
aI102
aI359
aI360
aI361
aI362
aI364
aI365
aI367
aI369
aI370
aI371
aI372
aI757
aI374
aI375
aI376
aI377
aI378
aI379
aI380
aI381
aI382
aI383
atRp34
sI40
g2
((lp35
I1
aI387
aI390
aI391
aI393
aI18
aI21
aI32
aI417
aI34
aI36
aI41
aI301
aI568
aI58
aI828
aI63
aI92
aI864
aI99
aI100
aI102
atRp36
sI41
g2
((lp37
I770
aI107
aI179
aI646
aI65
aI394
aI87
aI12
aI397
aI398
aI16
aI401
aI18
aI403
aI404
aI405
aI281
aI408
aI409
aI201
aI411
aI90
aI798
aI32
aI417
aI418
aI419
aI420
aI422
aI423
aI40
aI551
aI42
aI427
aI172
aI177
aI51
aI52
aI181
aI73
aI283
aI57
aI58
aI63
aI64
aI416
aI711
aI72
aI396
aI34
aI205
aI80
aI99
aI596
aI185
aI7
aI71
aI739
aI100
aI102
aI873
aI39
aI109
aI367
aI625
aI757
aI255
atRp38
sI42
g2
((lp39
I443
aI484
aI102
aI711
aI41
aI71
aI396
aI397
aI431
aI401
aI403
aI404
aI438
aI873
aI440
aI411
aI351
atRp40
sI43
g2
((lp41
I448
aI770
aI390
aI486
aI394
aI972
aI16
aI401
aI462
aI33
aI359
aI292
aI677
aI39
aI41
aI480
aI956
aI477
aI50
aI181
aI73
aI440
aI444
aI445
aI446
aI63
aI458
aI449
aI450
aI451
aI452
aI454
aI455
aI456
aI457
aI330
aI459
aI460
aI461
aI334
aI463
aI464
aI465
aI82
aI468
aI469
aI470
aI472
aI473
aI474
aI476
aI349
aI479
aI96
aI481
aI482
aI483
aI484
aI357
aI102
aI487
aI360
aI489
aI490
aI485
aI492
aI494
aI495
aI488
aI370
aI372
aI757
aI378
aI447
aI765
aI382
aI255
atRp42
sI50
g2
((lp43
I512
aI516
aI518
aI519
aI34
aI39
aI73
aI320
aI705
aI630
aI457
aI330
aI851
aI470
aI506
aI482
aI484
aI357
aI102
aI374
aI378
aI765
aI510
aI511
atRp44
sI51
g2
((lp45
I32
aI450
aI100
aI102
aI806
aI422
aI520
aI73
aI12
aI18
aI526
aI528
aI440
aI786
aI787
aI53
aI824
aI740
aI58
aI78
aI947
atRp46
sI52
g2
((lp47
I33
aI100
aI677
aI102
aI87
aI282
aI91
aI92
aI63
atRp48
sI53
g2
((lp49
I96
aI201
aI806
aI63
aI107
aI18
aI758
aI73
aI538
aI539
aI540
aI542
aI543
atRp50
sI54
g2
((lp51
I1
aI771
aI51
aI7
aI520
aI538
aI27
aI540
aI543
aI545
aI34
aI551
aI562
aI947
aI567
aI57
aI58
aI576
aI579
aI580
aI584
aI78
aI591
aI216
aI611
aI102
atRp52
sI57
g2
((lp53
I1
aI132
aI7
aI662
aI538
aI27
aI282
aI543
aI32
aI545
aI39
aI41
aI177
aI562
aI567
aI568
aI58
aI187
aI63
aI705
aI67
aI73
aI80
aI90
aI91
aI92
aI611
aI228
aI357
aI102
aI118
aI376
atRp54
sI58
g2
((lp55
I770
aI520
aI12
aI18
aI579
aI666
aI540
aI282
aI32
aI34
aI91
aI292
aI551
aI41
aI43
aI301
aI562
aI947
aI54
aI57
aI572
aI573
aI63
aI576
aI67
aI580
aI197
aI583
aI584
aI73
aI587
aI205
aI291
aI591
aI592
aI593
aI99
aI596
aI341
aI86
aI599
aI216
aI100
aI603
aI357
aI611
aI868
aI614
aI102
aI871
aI757
aI247
aI254
atRp56
sI61
g2
((lp57
I512
aI641
aI643
aI645
aI646
aI647
aI648
aI651
aI621
aI656
aI39
aI50
aI58
aI315
aI82
aI482
aI357
aI102
aI365
aI625
aI627
aI628
aI629
aI630
aI632
aI633
aI634
aI637
aI638
aI639
atRp58
sI63
g2
((lp59
I705
aI87
aI657
aI18
aI660
aI661
aI662
aI452
aI666
aI27
aI668
aI669
aI670
aI671
aI32
aI673
aI34
aI675
aI292
aI677
aI39
aI40
aI41
aI303
aI584
aI52
aI54
aI201
aI58
aI320
aI577
aI579
aI667
aI583
aI672
aI73
aI458
aI567
aI333
aI461
aI80
aI596
aI599
aI676
aI90
aI91
aI92
aI96
aI100
aI102
aI105
aI113
aI118
aI255
atRp60
sI64
g2
((lp61
I65
aI102
aI711
aI41
aI50
aI787
aI440
atRp62
sI65
g2
((lp63
I394
aI397
aI401
aI404
aI39
aI41
aI42
aI173
aI440
aI700
aI704
aI705
aI708
aI711
aI712
aI716
aI719
aI82
aI102
aI873
aI367
aI765
atRp64
sI67
g2
((lp65
I416
aI102
aI39
aI73
aI109
aI841
aI80
aI177
aI41
aI118
aI247
aI57
aI91
aI63
atRp66
sI71
g2
((lp67
I770
aI16
aI403
aI405
aI419
aI39
aI41
aI177
aI50
aI315
aI65
aI765
aI73
aI722
aI726
aI379
aI102
aI367
aI757
aI378
aI763
aI443
atRp68
sI72
g2
((lp69
I16
aI18
aI21
aI278
aI32
aI40
aI41
aI172
aI177
aI949
aI58
aI201
aI330
aI204
aI80
aI216
aI733
aI96
aI100
aI102
aI757
aI118
aI253
atRp70
sI73
g2
((lp71
I512
aI769
aI770
aI771
aI773
aI775
aI777
aI778
aI779
aI12
aI782
aI109
aI528
aI785
aI18
aI403
aI788
aI789
aI755
aI225
aI959
aI86
aI798
aI32
aI801
aI806
aI39
aI470
aI41
aI43
aI255
aI379
aI448
aI51
aI181
aI440
aI756
aI58
aI61
aI319
aI447
aI736
aI71
aI330
aI972
aI78
aI33
aI661
aI416
aI84
aI526
aI742
aI625
aI7
aI100
aI474
aI219
aI349
aI741
aI96
aI16
aI739
aI740
aI357
aI102
aI401
aI744
aI489
aI359
aI748
aI786
aI750
aI751
aI752
aI488
aI754
aI787
aI372
aI757
aI758
aI494
aI762
aI763
aI765
aI405
atRp72
sI78
g2
((lp73
I132
aI520
aI365
aI27
aI798
aI801
aI806
aI39
aI41
aI817
aI818
aI51
aI53
aI312
aI58
aI828
aI63
aI965
aI584
aI73
aI330
aI334
aI824
aI84
aI96
aI100
aI422
aI102
aI359
aI109
aI750
aI751
aI752
aI757
aI254
atRp74
sI80
g2
((lp75
I7
aI660
aI282
aI33
aI41
aI43
aI301
aI584
aI562
aI567
aI58
aI315
aI63
aI705
aI67
aI836
aI838
aI839
aI72
aI841
aI842
aI216
aI90
aI92
aI100
aI102
aI105
aI113
atRp76
sI82
g2
((lp77
I512
aI385
aI390
aI705
aI870
aI857
aI292
aI39
aI43
aI93
aI229
aI50
aI704
aI65
aI630
aI711
aI716
aI845
aI847
aI848
aI849
aI850
aI851
aI852
aI854
aI855
aI856
aI100
aI858
aI859
aI860
aI890
aI863
aI864
aI865
aI866
aI867
aI868
aI869
aI102
aI871
aI872
aI873
aI875
aI877
aI879
aI880
aI881
aI882
aI883
aI884
aI886
aI887
aI888
aI889
aI378
aI637
atRp78
sI84
g2
((lp79
I64
aI225
aI132
aI102
aI801
aI73
aI908
aI78
aI751
aI818
aI51
aI526
aI828
aI798
atRp80
sI86
g2
((lp81
I32
aI353
aI898
aI931
aI100
aI102
aI326
aI628
aI58
aI91
aI93
atRp82
sI87
g2
((lp83
I33
aI611
aI100
aI102
aI303
aI52
aI282
aI63
atRp84
sI90
g2
((lp85
I1
aI7
aI12
aI662
aI920
aI922
aI668
aI671
aI33
aI34
aI36
aI677
aI41
aI197
aI562
aI51
aI52
aI567
aI568
aI57
aI58
aI63
aI64
aI705
aI67
aI118
aI72
aI205
aI335
aI676
aI228
aI91
aI92
aI93
aI100
aI102
aI105
aI374
atRp86
sI91
g2
((lp87
I1
aI520
aI908
aI920
aI922
aI672
aI33
aI677
aI41
aI301
aI303
aI51
aI52
aI58
aI63
aI577
aI67
aI228
aI12
aI80
aI416
aI345
aI90
aI92
aI611
aI100
aI102
aI109
aI118
atRp88
sI92
g2
((lp89
I1
aI520
aI908
aI916
aI662
aI920
aI282
aI922
aI32
aI33
aI34
aI676
aI677
aI41
aI54
aI567
aI568
aI36
aI63
aI576
aI705
aI67
aI197
aI72
aI205
aI80
aI86
aI345
aI90
aI91
aI100
aI102
aI871
aI105
aI118
atRp90
sI93
g2
((lp91
I923
aI926
aI927
aI33
aI930
aI931
aI932
aI934
aI39
aI296
aI937
aI940
aI941
aI942
aI943
aI313
aI324
aI326
aI291
aI86
aI292
aI102
aI935
aI887
atRp92
sI96
g2
((lp93
I257
aI770
aI132
aI959
aI262
aI391
aI10
aI16
aI216
aI18
aI451
aI661
aI225
aI27
aI668
aI669
aI670
aI51
aI676
aI197
aI99
aI1
aI422
aI39
aI40
aI41
aI43
aI330
aI175
aI946
aI947
aI181
aI950
aI951
aI952
aI705
aI444
aI53
aI958
aI949
aI960
aI961
aI963
aI964
aI965
aI966
aI967
aI73
aI458
aI971
aI972
aI461
aI974
aI568
aI978
aI979
aI980
aI7
aI169
aI219
aI481
aI379
aI100
aI485
aI102
aI956
aI107
aI748
aI109
aI750
aI239
aI752
aI114
aI292
aI757
aI118
aI247
aI63
aI252
aI254
aI21
atRp94
sI99
g2
((lp95
I32
aI417
aI34
aI771
aI100
aI357
aI102
aI96
aI40
aI73
aI267
aI908
aI270
aI80
aI787
aI21
aI41
aI57
aI58
aI348
aI61
atRp96
sI100
g2
((lp97
I1
aI770
aI107
aI7
aI64
aI12
aI18
aI661
aI920
aI922
aI27
aI540
aI282
aI671
aI416
aI33
aI34
aI347
aI36
aI294
aI39
aI296
aI41
aI298
aI43
aI301
aI72
aI611
aI52
aI949
aI841
aI57
aI58
aI63
aI320
aI672
aI67
aI324
aI197
aI326
aI292
aI584
aI201
aI205
aI335
aI847
aI80
aI82
aI291
aI980
aI86
aI87
aI538
aI345
aI90
aI91
aI92
aI93
aI99
aI32
aI102
aI359
aI105
aI871
aI177
aI757
aI576
aI890
aI255
atRp98
sI102
g2
((lp99
I1
aI7
aI520
aI9
aI10
aI599
aI12
aI526
aI16
aI18
aI21
aI538
aI27
aI540
aI543
aI32
aI33
aI34
aI36
aI39
aI40
aI41
aI42
aI43
aI562
aI51
aI52
aI53
aI54
aI568
aI57
aI58
aI61
aI63
aI64
aI65
aI67
aI580
aI71
aI72
aI73
aI78
aI80
aI82
aI84
aI86
aI87
aI90
aI91
aI92
aI93
aI96
aI528
aI99
aI100
aI871
aI109
aI114
aI118
aI107
aI646
aI666
aI539
aI28
aI181
aI190
aI705
aI201
aI739
aI740
aI229
aI742
aI748
aI751
aI752
aI757
aI250
aI763
aI770
aI771
aI773
aI267
aI787
aI283
aI50
aI818
aI324
aI335
aI345
aI347
aI357
aI359
aI360
aI371
aI379
aI576
aI390
aI397
aI408
aI403
aI405
aI920
aI922
aI239
aI419
aI422
aI583
aI947
aI959
aI457
aI463
aI169
aI596
atRp100
sI103
g2
((lp101
I705
aI292
aI293
aI385
aI872
aI39
aI100
aI63
atRp102
sI104
g2
((lp103
I1
aI716
atRp104
sI105
g2
((lp105
I0
aI1
aI18
aI27
aI671
aI34
aI677
aI52
aI57
aI58
aI63
aI705
aI67
aI839
aI205
aI80
aI90
aI92
aI96
aI871
aI109
aI118
aI254
atRp106
sI107
g2
((lp107
I7
aI18
aI538
aI27
aI540
aI542
aI543
aI41
aI177
aI53
aI58
aI671
aI839
aI73
aI330
aI80
aI980
aI87
aI90
aI100
aI357
aI102
aI757
aI378
aI254
aI255
atRp108
sI108
g2
((lp109
I100
aI102
aI7
aI73
aI107
aI80
aI657
aI568
aI58
aI671
atRp110
sI109
g2
((lp111
I1
aI262
aI391
aI520
aI779
aI528
aI661
aI662
aI539
aI540
aI669
aI670
aI543
aI416
aI34
aI27
aI41
aI839
aI172
aI175
aI177
aI91
aI52
aI949
aI567
aI568
aI190
aI63
aI67
aI964
aI965
aI967
aI247
aI78
aI80
aI980
aI219
aI96
aI16
aI100
aI102
aI744
aI105
aI107
aI239
aI752
aI114
aI118
aI169
aI763
aI252
aI254
aI255
atRp112
sI113
g2
((lp113
I102
aI7
aI72
aI107
aI108
aI109
aI18
aI947
aI757
aI378
aI63
atRp114
sI114
g2
((lp115
I96
aI705
aI847
aI245
aI102
aI7
aI73
aI43
aI109
aI751
aI528
aI947
aI21
aI118
aI247
aI216
aI27
aI668
aI254
aI63
atRp116
sI118
g2
((lp117
I1
aI385
aI12
aI365
aI18
aI67
aI920
aI922
aI27
aI668
aI670
aI292
aI677
aI583
aI72
aI52
aI54
aI568
aI313
aI190
aI63
aI576
aI579
aI839
aI584
aI73
aI333
aI80
aI92
aI102
aI105
aI109
atRp118
sI132
g2
((lp119
I9
aI394
aI404
aI205
aI102
atRp120
sI152
g2
((lp121
I160
aI161
aI162
aI102
aI73
aI78
aI757
aI152
aI252
aI158
aI543
atRp122
sI158
g2
((lp123
I161
aI10
aI538
aI102
aI543
atRp124
sI160
g2
((lp125
I10
aI158
aI102
aI950
atRp126
sI161
g2
((lp127
I96
aI102
aI457
aI10
aI757
aI956
aI543
atRp128
sI162
g2
((lp129
I161
aI773
aI102
aI487
aI10
aI39
aI404
aI255
aI394
aI543
atRp130
sI168
g2
((lp131
I16
aI401
aI43
aI461
atRp132
sI169
g2
((lp133
I450
aI100
aI43
aI974
aI175
aI16
aI177
aI757
aI404
aI181
aI440
aI756
aI58
aI964
aI669
aI63
atRp134
sI172
g2
((lp135
I96
aI676
aI102
aI72
aI16
aI757
aI247
aI949
atRp136
sI173
g2
((lp137
I33
aI482
aI484
aI357
aI457
aI43
aI460
aI301
aI719
aI851
aI468
aI495
aI479
aI700
aI255
aI319
atRp138
sI174
g2
((ltRp139
sI175
g2
((lp140
I964
aI422
aI39
aI9
aI43
aI16
aI177
aI754
aI404
aI661
aI41
aI669
atRp141
sI176
g2
((lp142
I16
aI185
aI179
aI43
aI181
atRp143
sI177
g2
((lp144
I257
aI770
aI132
aI959
aI262
aI391
aI10
aI16
aI216
aI18
aI451
aI661
aI225
aI27
aI668
aI669
aI670
aI51
aI676
aI197
aI99
aI1
aI422
aI39
aI40
aI41
aI43
aI330
aI175
aI946
aI947
aI181
aI950
aI951
aI952
aI705
aI444
aI53
aI958
aI949
aI960
aI961
aI963
aI964
aI965
aI966
aI967
aI73
aI458
aI971
aI972
aI461
aI974
aI568
aI978
aI979
aI980
aI7
aI169
aI219
aI481
aI379
aI100
aI485
aI102
aI956
aI107
aI748
aI109
aI750
aI239
aI752
aI114
aI292
aI757
aI118
aI247
aI63
aI252
aI254
aI21
atRp145
sI179
g2
((lp146
I16
aI185
aI43
aI181
atRp147
sI181
g2
((lp148
I96
aI450
aI102
aI391
aI169
aI43
aI239
aI463
aI16
aI177
aI179
aI756
aI185
aI63
aI669
aI255
atRp149
sI185
g2
((lp150
I41
aI16
aI401
aI179
aI181
aI73
aI255
aI757
atRp151
sI187
g2
((lp152
I577
aI227
aI228
aI102
aI234
aI461
aI18
aI63
atRp153
sI190
g2
((lp154
I32
aI1
aI100
aI102
aI7
aI72
aI41
aI114
aI40
aI18
aI21
aI292
aI63
atRp155
sI191
g2
((lp156
I72
aI18
aI102
atRp157
sI197
g2
((lp158
I41
aI18
aI27
aI100
aI102
atRp159
sI201
g2
((lp160
I771
aI132
aI748
aI398
aI18
aI788
aI661
aI27
aI751
aI669
aI798
aI543
aI39
aI41
aI172
aI175
aI50
aI51
aI949
aI786
aI53
aI958
aI959
aI964
aI73
aI972
aI974
aI80
aI526
aI947
aI78
aI96
aI100
aI357
aI102
aI107
aI364
aI109
aI367
aI758
aI379
aI21
atRp161
sI204
g2
((lp162
I18
aI324
aI357
atRp163
sI205
g2
((lp164
I448
aI32
aI229
aI102
aI39
aI847
aI18
aI383
aI0
atRp165
sI211
g2
((lp166
I18
aI887
aI765
aI349
atRp167
sI215
g2
((lp168
I32
aI705
aI72
aI785
aI82
aI404
atRp169
sI216
g2
((lp170
I96
aI577
aI100
aI114
aI102
aI105
aI109
aI526
aI80
aI18
aI52
aI118
aI567
aI568
aI58
aI27
aI63
atRp171
sI219
g2
((lp172
I225
aI102
aI72
aI73
aI107
aI18
aI21
aI540
atRp173
sI221
g2
((lp174
I225
aI100
aI197
aI102
aI391
aI40
aI239
aI80
aI18
aI21
aI58
aI671
aI63
atRp175
sI225
g2
((lp176
I32
aI1
aI219
aI102
aI72
aI239
aI752
aI18
aI21
aI576
aI283
aI540
aI757
atRp177
sI227
g2
((lp178
I669
aI676
aI177
aI313
aI63
aI886
aI330
aI333
aI461
aI82
aI211
aI219
aI96
aI353
aI483
aI228
aI229
aI365
aI494
aI240
aI114
aI757
aI374
aI191
aI253
atRp179
sI228
g2
((lp180
I32
aI100
aI229
aI102
aI18
aI21
aI278
aI58
aI187
aI254
aI63
atRp181
sI229
g2
((lp182
I705
aI292
aI357
aI102
aI33
aI470
aI330
aI331
aI334
aI757
aI374
aI324
atRp183
sI234
g2
((lp184
I770
aI18
aI291
aI292
aI39
aI296
aI43
aI301
aI562
aI313
aI58
aI191
aI326
aI330
aI331
aI205
aI461
aI80
aI211
aI468
aI470
aI349
aI96
aI227
aI100
aI229
aI102
aI364
aI239
aI756
aI757
aI63
atRp185
sI239
g2
((lp186
I416
aI1
aI229
aI102
aI391
aI72
aI43
aI21
aI221
aI63
atRp187
sI240
g2
((lp188
I770
aI18
aI291
aI292
aI39
aI296
aI43
aI301
aI562
aI313
aI58
aI191
aI326
aI330
aI331
aI205
aI461
aI80
aI211
aI468
aI470
aI349
aI96
aI227
aI100
aI229
aI102
aI364
aI239
aI756
aI757
aI63
atRp189
sI245
g2
((lp190
I847
aI102
aI39
aI43
aI255
aI757
aI27
aI765
aI383
atRp191
sI247
g2
((lp192
I257
aI769
aI526
aI528
aI18
aI788
aI27
aI669
aI676
aI39
aI41
aI43
aI51
aI949
aI952
aI53
aI480
aI965
aI947
aI73
aI458
aI461
aI78
aI980
aI219
aI96
aI102
aI109
aI752
aI757
aI763
atRp193
sI250
g2
((lp194
I770
aI262
aI394
aI18
aI27
aI670
aI41
aI43
aI175
aI177
aI949
aI315
aI63
aI965
aI328
aI73
aI447
aI974
aI463
aI96
aI481
aI740
aI102
aI488
aI489
aI750
aI756
aI757
aI169
aI379
aI254
atRp195
sI251
g2
((lp196
I256
aI379
aI39
aI873
aI461
aI847
aI82
aI383
aI757
aI457
aI859
aI253
aI255
atRp197
sI252
g2
((lp198
I96
aI251
aI228
aI102
aI262
aI7
aI73
aI330
aI109
aI78
aI847
aI114
aI670
aI21
aI567
aI568
aI132
aI27
aI254
atRp199
sI253
g2
((lp200
I256
aI261
aI27
aI291
aI292
aI422
aI41
aI43
aI58
aI330
aI63
aI458
aI333
aI847
aI80
aI82
aI469
aI93
aI96
aI100
aI934
aI102
aI757
aI255
atRp201
sI254
g2
((lp202
I132
aI7
aI908
aI365
aI528
aI21
aI27
aI668
aI670
aI416
aI34
aI947
aI63
aI705
aI67
aI73
aI78
aI84
aI96
aI102
aI109
aI751
aI113
aI247
atRp203
sI255
g2
((lp204
I864
aI385
aI485
aI39
aI334
aI847
aI468
aI757
aI448
aI27
aI383
atRp205
sI256
g2
((lp206
I847
aI251
aI255
atRp207
sI257
g2
((lp208
I96
aI99
aI132
aI102
aI73
aI43
aI908
aI109
aI177
aI114
aI247
aI254
aI63
atRp209
sI259
g2
((lp210
I256
aI261
aI27
aI291
aI292
aI422
aI41
aI43
aI58
aI330
aI63
aI458
aI333
aI847
aI80
aI82
aI469
aI93
aI96
aI100
aI934
aI102
aI757
aI255
atRp211
sI260
g2
((lp212
I770
aI262
aI394
aI18
aI27
aI670
aI41
aI43
aI175
aI177
aI949
aI315
aI63
aI965
aI328
aI73
aI447
aI974
aI463
aI96
aI481
aI740
aI102
aI488
aI489
aI750
aI756
aI757
aI169
aI379
aI254
atRp213
sI261
g2
((lp214
I251
aI357
aI39
aI333
aI291
aI27
aI255
atRp215
sI262
g2
((lp216
I385
aI259
aI7
aI27
aI540
aI669
aI670
aI416
aI668
aI568
aI63
aI320
aI577
aI965
aI73
aI972
aI980
aI96
aI100
aI102
aI105
aI109
aI114
aI118
aI251
aI254
aI255
atRp217
sI265
g2
((lp218
I257
aI769
aI526
aI528
aI18
aI788
aI27
aI669
aI676
aI39
aI41
aI43
aI51
aI949
aI952
aI53
aI480
aI965
aI947
aI73
aI458
aI461
aI78
aI980
aI219
aI96
aI102
aI109
aI752
aI757
aI763
atRp219
sI266
g2
((lp220
I256
aI261
aI27
aI291
aI292
aI422
aI41
aI43
aI58
aI330
aI63
aI458
aI333
aI847
aI80
aI82
aI469
aI93
aI96
aI100
aI934
aI102
aI757
aI255
atRp221
sI267
g2
((lp222
I0
aI99
atRp223
sI270
g2
((lp224
I32
aI64
aI99
aI100
aI102
aI908
aI18
aI630
aI58
atRp225
sI278
g2
((lp226
I32
aI320
aI100
aI102
aI72
aI41
aI173
aI18
aI404
aI21
aI201
aI216
aI58
aI190
aI757
atRp227
sI280
g2
((lp228
I32
aI100
aI102
aI72
aI42
aI80
aI18
aI63
atRp229
sI281
g2
((lp230
I197
aI102
aI41
aI394
aI109
aI18
aI757
aI315
aI540
atRp231
sI282
g2
((lp232
I32
aI576
aI294
aI599
aI80
aI52
aI54
aI87
aI57
aI90
aI91
aI92
aI319
atRp233
sI283
g2
((lp234
I0
aI32
aI99
aI448
aI201
aI18
aI771
aI628
aI41
aI920
aI187
atRp235
sI291
g2
((lp236
I770
aI33
aI292
aI677
aI934
aI39
aI296
aI298
aI177
aI311
aI313
aI63
aI451
aI330
aI461
aI462
aI335
aI676
aI93
aI485
aI890
aI253
aI382
atRp237
sI292
g2
((lp238
I378
aI416
aI33
aI291
aI677
aI39
aI296
aI301
aI50
aI307
aI313
aI58
aI956
aI63
aI320
aI326
aI711
aI841
aI458
aI461
aI334
aI847
aI848
aI82
aI470
aI858
aI93
aI863
aI480
aI100
aI357
aI102
aI488
aI877
aI757
aI887
aI890
aI637
atRp239
sI293
g2
((lp240
I33
aI770
aI292
aI677
aI326
aI705
aI458
aI305
aI63
atRp241
sI294
g2
((lp242
I99
aI100
aI839
aI41
aI301
aI841
aI80
aI657
aI87
aI282
aI670
atRp243
sI296
g2
((lp244
I480
aI33
aI379
aI292
aI677
aI39
aI359
aI301
aI335
aI43
aI315
aI757
aI251
aI313
aI378
aI255
aI637
aI382
aI63
atRp245
sI298
g2
((lp246
I33
aI770
aI100
aI326
aI102
aI490
aI301
aI307
aI86
aI313
aI292
aI58
aI91
aI293
atRp247
sI301
g2
((lp248
I33
aI355
aI357
aI818
aI315
aI319
atRp249
sI302
g2
((lp250
I33
aI676
aI357
aI486
aI39
aI362
aI365
aI334
aI353
aI677
aI307
aI292
aI313
aI63
aI382
aI319
atRp251
sI303
g2
((lp252
I99
aI100
aI839
aI41
aI301
aI841
aI80
aI657
aI87
aI282
aI670
atRp253
sI304
g2
((ltRp254
sI305
g2
((lp255
I33
aI770
aI100
aI326
aI102
aI490
aI301
aI307
aI86
aI313
aI292
aI58
aI91
aI293
atRp256
sI306
g2
((lp257
I33
aI291
aI934
aI330
aI942
aI931
aI93
aI926
atRp258
sI307
g2
((lp259
I33
aI292
aI326
aI102
aI39
aI296
aI313
aI335
aI677
aI82
aI887
aI440
aI100
aI63
aI93
aI382
aI319
atRp260
sI311
g2
((lp261
I7
aI404
aI32
aI33
aI292
aI296
aI43
aI301
aI50
aI58
aI319
aI324
aI326
aI71
aI333
aI80
aI82
aI859
aI93
aI100
aI107
aI378
aI63
aI255
atRp262
sI312
g2
((lp263
I293
aI326
aI298
aI82
aI315
aI93
atRp264
sI313
g2
((lp265
I512
aI1
aI7
aI291
aI292
aI677
aI934
aI39
aI296
aI302
aI177
aI307
aI312
aI63
aI705
aI326
aI967
aI330
aI845
aI334
aI335
aI82
aI859
aI93
aI100
aI365
aI757
aI379
aI637
atRp266
sI315
g2
((lp267
I7
aI404
aI32
aI33
aI292
aI296
aI43
aI301
aI50
aI58
aI319
aI324
aI326
aI71
aI333
aI80
aI82
aI859
aI93
aI100
aI107
aI378
aI63
aI255
atRp268
sI317
g2
((lp269
I33
aI43
aI292
aI293
aI102
aI39
aI331
aI306
aI305
aI82
aI757
aI470
aI313
aI251
aI93
aI63
atRp270
sI319
g2
((lp271
I320
aI33
aI324
aI102
aI967
aI43
aI301
aI333
aI307
aI311
aI292
aI890
aI313
aI63
atRp272
sI320
g2
((lp273
I33
aI292
aI677
aI102
aI63
aI109
aI18
aI319
aI255
atRp274
sI324
g2
((lp275
I33
aI931
aI102
aI335
aI118
aI890
aI93
atRp276
sI326
g2
((lp277
I33
aI292
aI293
aI43
aI305
aI82
aI888
aI100
aI63
aI255
atRp278
sI328
g2
((lp279
I33
aI931
aI102
aI335
aI118
aI890
aI93
atRp280
sI330
g2
((lp281
I770
aI390
aI33
aI292
aI934
aI39
aI43
aI306
aI177
aI50
aI440
aI58
aI351
aI444
aI61
aI63
aI451
aI452
aI455
aI73
aI458
aI331
aI461
aI333
aI465
aI739
aI468
aI470
aI100
aI474
aI93
aI479
aI480
aI481
aI315
aI484
aI357
aI102
aI488
aI485
aI877
aI494
aI317
aI757
aI379
aI255
atRp282
sI331
g2
((lp283
I33
aI227
aI677
aI934
aI39
aI43
aI82
aI18
aI376
aI102
aI317
atRp284
sI333
g2
((lp285
I480
aI770
aI43
aI292
aI677
aI102
aI39
aI331
aI301
aI82
aI757
aI470
aI440
aI313
aI378
aI63
atRp286
sI334
g2
((lp287
I512
aI385
aI1
aI33
aI292
aI39
aI43
aI301
aI302
aI313
aI956
aI63
aI705
aI967
aI330
aI887
aI847
aI82
aI468
aI353
aI357
aI362
aI375
aI378
aI255
aI383
atRp288
sI335
g2
((lp289
I33
aI291
aI292
aI102
aI227
aI331
aI307
aI313
aI100
aI58
aI348
aI93
atRp290
sI341
g2
((lp291
I1
aI36
aI662
aI102
aI593
aI596
aI118
aI599
aI920
aI345
aI347
atRp292
sI345
g2
((lp293
I33
aI100
aI102
aI1
aI520
aI584
aI593
aI567
aI920
aI36
aI347
aI92
atRp294
sI347
g2
((lp295
I33
aI34
aI36
aI102
aI584
aI567
aI335
aI592
aI593
aI40
atRp296
sI348
g2
((lp297
I1
aI262
aI7
aI908
aI18
aI922
aI33
aI34
aI91
aI36
aI301
aI72
aI64
aI579
aI583
aI584
aI12
aI591
aI87
aI345
aI90
aI347
aI92
aI99
aI100
aI102
aI113
aI545
aI118
atRp298
sI349
g2
((lp299
I770
aI483
aI39
aI360
aI372
aI394
aI43
aI463
aI359
aI401
aI451
aI756
aI757
aI313
aI956
aI765
aI459
aI789
atRp300
sI351
g2
((lp301
I96
aI33
aI765
aI484
aI357
aI487
aI39
aI461
aI367
aI401
aI369
aI372
aI757
aI485
aI473
aI349
aI741
atRp302
sI353
g2
((lp303
I320
aI357
aI770
aI292
aI229
aI39
aI356
aI362
aI887
aI364
aI365
aI334
aI302
aI757
aI374
aI375
aI313
aI378
aI63
atRp304
sI355
g2
((lp305
I448
aI770
aI390
aI486
aI394
aI972
aI16
aI401
aI462
aI33
aI359
aI292
aI677
aI39
aI41
aI480
aI956
aI477
aI50
aI181
aI73
aI440
aI444
aI445
aI446
aI63
aI458
aI449
aI450
aI451
aI452
aI454
aI455
aI456
aI457
aI330
aI459
aI460
aI461
aI334
aI463
aI464
aI465
aI82
aI468
aI469
aI470
aI472
aI473
aI474
aI476
aI349
aI479
aI96
aI481
aI482
aI483
aI484
aI357
aI102
aI487
aI360
aI489
aI490
aI485
aI492
aI494
aI495
aI488
aI370
aI372
aI757
aI378
aI447
aI765
aI382
aI255
atRp306
sI356
g2
((lp307
I512
aI353
aI99
aI39
aI361
aI43
aI82
aI637
aI848
aI335
aI757
aI374
aI440
aI313
aI379
aI61
atRp308
sI357
g2
((lp309
I512
aI770
aI262
aI646
aI397
aI365
aI656
aI785
aI405
aI662
aI416
aI33
aI292
aI677
aI39
aI296
aI41
aI42
aI43
aI301
aI50
aI949
aI479
aI457
aI440
aI58
aI315
aI458
aI629
aI100
aI450
aI324
aI967
aI73
aI330
aI334
aI173
aI470
aI473
aI349
aI351
aI96
aI379
aI484
aI102
aI359
aI252
aI877
aI494
aI61
aI319
aI114
aI32
aI756
aI757
aI247
aI63
aI455
aI765
aI254
aI255
atRp310
sI359
g2
((lp311
I512
aI770
aI39
aI43
aI50
aI440
aI313
aI61
aI330
aI334
aI847
aI468
aI349
aI357
aI102
aI360
aI365
aI367
aI488
aI757
aI379
aI383
atRp312
sI360
g2
((lp313
I770
aI359
aI487
aI357
aI39
aI330
aI43
aI465
aI50
aI372
aI757
aI379
aI349
aI485
atRp314
sI361
g2
((lp315
I512
aI801
aI356
aI357
aI102
aI39
aI362
aI908
aI365
aI334
aI301
aI596
aI757
aI313
aI440
aI377
aI58
aI367
aI751
aI61
aI637
atRp316
sI362
g2
((lp317
I353
aI770
aI292
aI357
aI39
aI967
aI364
aI365
aI334
aI757
aI245
aI374
aI375
aI313
aI63
atRp318
sI364
g2
((lp319
I480
aI357
aI39
aI362
aI43
aI367
aI757
aI374
aI61
atRp320
sI365
g2
((lp321
I1
aI770
aI385
aI292
aI677
aI39
aI43
aI301
aI440
aI313
aI58
aI63
aI320
aI705
aI330
aI461
aI334
aI335
aI847
aI480
aI357
aI102
aI359
aI877
aI372
aI374
aI378
aI251
aI637
aI383
atRp322
sI367
g2
((lp323
I357
aI487
aI360
aI41
aI39
aI349
aI369
aI50
aI757
aI765
aI351
atRp324
sI369
g2
((lp325
I39
aI367
aI851
aI473
aI765
aI351
atRp326
sI370
g2
((lp327
I512
aI516
aI518
aI519
aI34
aI39
aI73
aI320
aI705
aI630
aI457
aI330
aI851
aI470
aI506
aI482
aI484
aI357
aI102
aI374
aI378
aI765
aI510
aI511
atRp328
sI371
g2
((lp329
I484
aI357
aI39
aI330
aI495
aI82
aI378
atRp330
sI372
g2
((lp331
I481
aI770
aI488
aI39
aI360
aI489
aI43
aI465
aI50
aI757
aI349
aI383
atRp332
sI374
g2
((lp333
I353
aI770
aI102
aI39
aI362
aI359
aI364
aI365
aI367
aI785
aI50
aI211
aI245
aI375
aI313
atRp334
sI375
g2
((lp335
I353
aI229
aI39
aI330
aI908
aI847
aI628
aI757
aI374
aI887
aI234
aI357
atRp336
sI376
g2
((lp337
I353
aI100
aI229
aI292
aI63
aI173
aI80
aI789
aI324
aI315
aI93
aI255
atRp338
sI377
g2
((lp339
I320
aI385
aI39
aI967
aI845
aI365
aI82
aI372
aI757
aI705
aI255
aI383
atRp340
sI378
g2
((lp341
I320
aI1
aI868
aI102
aI487
aI82
aI50
aI371
aI470
atRp342
sI379
g2
((lp343
I770
aI365
aI291
aI292
aI39
aI296
aI43
aI255
aI302
aI50
aI947
aI568
aI313
aI58
aI956
aI458
aI63
aI73
aI330
aI334
aI740
aI96
aI763
aI100
aI357
aI359
aI492
aI877
aI367
aI114
aI372
aI757
aI251
aI383
atRp344
sI380
g2
((lp345
I96
aI448
aI485
aI39
aI360
aI777
aI394
aI967
aI748
aI177
aI756
aI757
aI379
aI765
atRp346
sI381
g2
((ltRp347
sI382
g2
((lp348
I480
aI33
aI770
aI39
aI488
aI490
aI43
aI364
aI301
aI367
aI320
aI296
aI468
aI756
aI313
atRp349
sI383
g2
((lp350
I770
aI27
aI292
aI39
aI296
aI43
aI313
aI63
aI450
aI330
aI845
aI334
aI847
aI82
aI96
aI365
aI372
aI757
aI374
aI375
aI251
aI382
aI255
atRp351
sI385
g2
((lp352
I864
aI705
aI102
aI39
aI845
aI377
aI378
aI383
atRp353
sI387
g2
((lp354
I40
aI92
aI102
aI335
atRp355
sI390
g2
((lp356
I33
aI324
aI677
aI102
aI39
aI40
aI330
aI43
aI173
aI301
aI50
aI468
aI391
aI312
aI890
aI335
atRp357
sI391
g2
((lp358
I40
aI320
aI677
aI102
aI63
atRp359
sI393
g2
((lp360
I390
aI102
atRp361
sI394
g2
((lp362
I512
aI769
aI770
aI771
aI773
aI775
aI777
aI778
aI779
aI12
aI782
aI109
aI528
aI785
aI18
aI403
aI788
aI789
aI755
aI225
aI959
aI86
aI798
aI32
aI801
aI806
aI39
aI470
aI41
aI43
aI255
aI379
aI448
aI51
aI181
aI440
aI756
aI58
aI61
aI319
aI447
aI736
aI71
aI330
aI972
aI78
aI33
aI661
aI416
aI84
aI526
aI742
aI625
aI7
aI100
aI474
aI219
aI349
aI741
aI96
aI16
aI739
aI740
aI357
aI102
aI401
aI744
aI489
aI359
aI748
aI786
aI750
aI751
aI752
aI488
aI754
aI787
aI372
aI757
aI758
aI494
aI762
aI763
aI765
aI405
atRp363
sI396
g2
((lp364
I64
aI418
aI419
aI420
aI41
aI42
aI427
aI404
aI73
aI411
atRp365
sI397
g2
((lp366
I401
aI41
aI42
aI102
aI711
atRp367
sI398
g2
((lp368
I41
aI281
aI102
aI409
atRp369
sI401
g2
((lp370
I65
aI741
aI41
aI42
aI404
aI411
atRp371
sI403
g2
((lp372
I417
aI770
aI357
aI102
aI401
aI41
aI43
aI742
aI789
aI73
aI763
aI765
aI447
atRp373
sI404
g2
((lp374
I1
aI7
aI520
aI9
aI10
aI599
aI12
aI526
aI16
aI18
aI21
aI538
aI27
aI540
aI543
aI32
aI33
aI34
aI36
aI39
aI40
aI41
aI42
aI43
aI562
aI51
aI52
aI53
aI54
aI568
aI57
aI58
aI61
aI63
aI64
aI65
aI67
aI580
aI71
aI72
aI73
aI78
aI80
aI82
aI84
aI86
aI87
aI90
aI91
aI92
aI93
aI96
aI528
aI99
aI100
aI871
aI109
aI114
aI118
aI107
aI646
aI666
aI539
aI28
aI181
aI190
aI705
aI201
aI739
aI740
aI229
aI742
aI748
aI751
aI752
aI757
aI250
aI763
aI770
aI771
aI773
aI267
aI787
aI283
aI50
aI818
aI324
aI335
aI345
aI347
aI357
aI359
aI360
aI371
aI379
aI576
aI390
aI397
aI408
aI403
aI405
aI920
aI922
aI239
aI419
aI422
aI583
aI947
aI959
aI457
aI463
aI169
aI596
atRp375
sI405
g2
((lp376
I32
aI132
aI102
aI71
aI73
aI394
aI39
aI50
aI9
aI41
aI42
atRp377
sI408
g2
((lp378
I32
aI132
aI102
aI71
aI73
aI394
aI39
aI50
aI9
aI41
aI42
atRp379
sI409
g2
((lp380
I65
aI357
aI102
aI41
aI398
aI18
aI851
aI757
atRp381
sI411
g2
((lp382
I420
aI102
aI41
aI396
aI401
aI443
atRp383
sI416
g2
((lp384
I257
aI770
aI132
aI959
aI262
aI391
aI10
aI16
aI216
aI18
aI451
aI661
aI225
aI27
aI668
aI669
aI670
aI51
aI676
aI197
aI99
aI1
aI422
aI39
aI40
aI41
aI43
aI330
aI175
aI946
aI947
aI181
aI950
aI951
aI952
aI705
aI444
aI53
aI958
aI949
aI960
aI961
aI963
aI964
aI965
aI966
aI967
aI73
aI458
aI971
aI972
aI461
aI974
aI568
aI978
aI979
aI980
aI7
aI169
aI219
aI481
aI379
aI100
aI485
aI102
aI956
aI107
aI748
aI109
aI750
aI239
aI752
aI114
aI292
aI757
aI118
aI247
aI63
aI252
aI254
aI21
atRp385
sI417
g2
((lp386
I41
aI404
atRp387
sI418
g2
((lp388
I41
aI394
aI396
aI102
atRp389
sI419
g2
((lp390
I742
aI102
aI71
aI41
aI42
aI397
aI719
aI401
aI403
aI73
aI443
atRp391
sI420
g2
((lp392
I64
aI417
aI418
aI423
aI102
aI711
aI41
aI42
aI427
aI396
aI397
aI401
aI403
aI411
atRp393
sI422
g2
((lp394
I1
aI262
aI391
aI520
aI779
aI528
aI661
aI662
aI539
aI540
aI669
aI670
aI543
aI416
aI34
aI27
aI41
aI839
aI172
aI175
aI177
aI91
aI52
aI949
aI567
aI568
aI190
aI63
aI67
aI964
aI965
aI967
aI247
aI78
aI80
aI980
aI219
aI96
aI16
aI100
aI102
aI744
aI105
aI107
aI239
aI752
aI114
aI118
aI169
aI763
aI252
aI254
aI255
atRp395
sI423
g2
((lp396
I41
aI417
aI102
aI65
atRp397
sI427
g2
((lp398
I41
aI418
aI102
atRp399
sI431
g2
((lp400
I42
aI931
aI229
aI102
aI39
atRp401
sI438
g2
((lp402
I42
atRp403
sI440
g2
((lp404
I512
aI65
aI630
aI100
aI357
aI102
aI487
aI42
aI711
aI397
aI719
aI50
aI307
aI32
aI333
aI311
aI33
aI378
aI61
atRp405
sI443
g2
((lp406
I32
aI908
aI418
aI419
aI420
aI742
aI102
aI71
aI41
aI42
aI396
aI397
aI12
aI16
aI401
aI722
aI403
aI404
aI411
atRp407
sI444
g2
((lp408
I96
aI33
aI291
aI292
aI677
aI73
aI330
aI43
aI334
aI757
aI470
aI484
aI58
aI479
aI63
atRp409
sI445
g2
((lp410
I416
aI451
aI357
aI457
aI330
aI43
aI461
aI757
aI374
atRp411
sI446
g2
((lp412
I488
aI489
aI43
aI456
aI485
atRp413
sI447
g2
((lp414
I96
aI481
aI450
aI292
aI458
aI455
aI360
aI330
aI43
aI460
aI173
aI462
aI967
aI789
aI470
aI473
aI476
aI349
aI181
atRp415
sI448
g2
((lp416
I480
aI355
aI485
aI486
aI457
aI458
aI43
aI757
aI349
atRp417
sI449
g2
((lp418
I96
aI457
aI43
atRp419
sI450
g2
((lp420
I770
aI484
aI330
aI43
aI50
aI440
aI61
atRp421
sI451
g2
((lp422
I448
aI360
aI458
aI43
aI495
atRp423
sI452
g2
((lp424
I96
aI770
aI483
aI484
aI458
aI43
aI301
aI974
aI757
aI349
atRp425
sI454
g2
((lp426
I489
aI394
aI43
aI485
aI447
atRp427
sI455
g2
((lp428
I416
aI490
aI450
aI451
aI485
aI486
aI33
aI488
aI489
aI330
aI43
aI460
aI494
aI463
aI177
aI102
aI468
aI661
aI474
aI458
aI469
atRp429
sI456
g2
((lp430
I488
aI360
aI43
aI489
atRp431
sI457
g2
((lp432
I488
aI473
aI43
aI173
aI461
atRp433
sI458
g2
((lp434
I96
aI416
aI450
aI451
aI262
aI330
aI43
aI494
aI463
aI114
aI661
aI247
aI252
aI254
aI949
atRp435
sI459
g2
((lp436
I450
aI39
aI489
aI458
aI43
aI462
aI177
aI372
aI757
aI330
atRp437
sI460
g2
((lp438
I488
aI43
aI462
aI495
atRp439
sI461
g2
((lp440
I481
aI770
aI451
aI484
aI741
aI458
aI43
aI468
aI251
aI765
aI479
atRp441
sI462
g2
((lp442
I450
aI964
aI455
aI330
aI43
aI460
aI494
aI468
aI349
aI479
atRp443
sI463
g2
((lp444
I661
aI39
aI43
aI50
aI330
aI319
aI961
aI450
aI451
aI455
aI458
aI461
aI470
aI473
aI474
aI349
aI96
aI481
aI483
aI485
aI102
aI494
atRp445
sI464
g2
((lp446
I96
aI484
aI357
aI967
aI394
aI43
aI82
aI463
aI50
aI757
aI247
aI485
atRp447
sI465
g2
((lp448
I450
aI102
aI39
aI457
aI330
aI43
aI460
aI177
aI757
aI470
aI446
atRp449
sI468
g2
((lp450
I315
aI324
aI455
aI328
aI490
aI460
aI173
aI757
aI319
aI330
aI382
aI255
atRp451
sI469
g2
((lp452
I480
aI481
aI485
aI488
aI457
aI43
aI460
aI461
aI462
aI489
aI379
aI956
aI349
aI447
atRp453
sI470
g2
((lp454
I390
aI486
aI789
aI32
aI33
aI931
aI292
aI39
aI50
aI440
aI444
aI330
aI446
aI447
aI451
aI458
aI331
aI460
aI461
aI333
aI100
aI479
aI484
aI357
aI102
aI487
aI488
aI489
aI485
aI317
atRp455
sI472
g2
((lp456
I450
aI964
aI455
aI330
aI43
aI460
aI494
aI468
aI349
aI479
atRp457
sI473
g2
((lp458
I484
aI357
aI487
aI460
aI50
aI440
aI378
atRp459
sI474
g2
((lp460
I485
aI455
aI39
aI458
aI43
aI494
aI757
atRp461
sI476
g2
((lp462
I450
aI484
aI489
aI458
aI43
aI463
aI177
aI370
aI757
aI476
aI330
atRp463
sI477
g2
((lp464
I16
aI789
aI43
aI181
aI330
aI63
aI450
aI451
aI455
aI458
aI470
aI474
aI96
aI481
aI741
aI102
aI487
aI489
aI494
aI495
aI757
aI888
aI661
atRp465
sI479
g2
((lp466
I33
aI378
aI50
aI330
aI495
atRp467
sI480
g2
((lp468
I0
aI770
aI661
aI39
aI43
aI73
aI455
aI457
aI330
aI334
aI468
aI470
aI473
aI474
aI349
aI96
aI357
aI102
aI359
aI488
aI489
aI492
aI494
aI757
atRp469
sI481
g2
((lp470
I0
aI770
aI661
aI39
aI43
aI73
aI455
aI457
aI330
aI334
aI468
aI470
aI473
aI474
aI349
aI96
aI357
aI102
aI359
aI488
aI489
aI492
aI494
aI757
atRp471
sI482
g2
((lp472
I39
aI457
aI330
aI367
aI468
aI757
aI379
aI479
atRp473
sI483
g2
((lp474
I473
aI484
aI173
aI967
atRp475
sI484
g2
((lp476
I440
aI43
aI173
aI479
aI357
atRp477
sI485
g2
((lp478
I770
aI394
aI43
aI50
aI949
aI372
aI330
aI181
aI448
aI450
aI452
aI458
aI334
aI476
aI349
aI96
aI102
aI486
aI488
aI365
aI494
aI360
aI756
aI757
aI247
atRp479
sI486
g2
((lp480
I96
aI451
aI485
aI39
aI360
aI43
aI365
aI494
aI464
aI50
aI470
aI247
aI474
aI349
aI383
atRp481
sI487
g2
((lp482
I484
aI330
aI461
aI463
aI50
aI440
aI473
aI315
atRp483
sI488
g2
((lp484
I450
aI102
aI39
aI457
aI330
aI43
aI460
aI177
aI757
aI470
aI446
atRp485
sI489
g2
((lp486
I484
aI43
aI460
aI50
aI403
aI468
aI757
atRp487
sI490
g2
((lp488
I43
aI460
aI462
aI468
aI789
aI446
atRp489
sI492
g2
((lp490
I457
atRp491
sI494
g2
((lp492
I661
aI416
aI43
aI177
aI50
aI181
aI330
aI455
aI458
aI461
aI462
aI468
aI474
aI93
aI96
aI481
aI229
aI102
aI488
aI489
aI757
aI255
atRp493
sI495
g2
((lp494
I705
aI357
aI173
atRp495
sI506
g2
((lp496
I104
aI50
aI378
atRp497
sI510
g2
((lp498
I512
aI370
aI173
atRp499
sI511
g2
((lp500
I50
atRp501
sI512
g2
((lp502
I33
aI100
aI357
aI39
aI488
aI331
aI82
aI334
aI365
aI440
aI50
aI886
aI313
aI632
aI292
aI890
aI335
aI637
aI510
atRp503
sI516
g2
((lp504
I104
aI50
aI378
atRp505
sI518
g2
((lp506
I50
atRp507
sI519
g2
((lp508
I770
aI355
aI457
aI177
aI50
aI757
atRp509
sI520
g2
((lp510
I100
aI102
aI40
aI41
aI751
aI80
aI36
aI58
aI91
aI92
atRp511
sI526
g2
((lp512
I64
aI769
aI740
aI102
aI201
aI978
aI51
aI84
aI41
aI787
atRp513
sI528
g2
((lp514
I801
aI34
aI771
aI161
aI806
aI102
aI359
aI488
aI73
aI971
aI225
aI109
aI78
aI752
aI177
aI51
aI84
aI949
aI43
aI219
atRp515
sI538
g2
((lp516
I96
aI705
aI539
aI105
aI102
aI583
aI41
aI205
aI80
aI118
aI52
aI53
aI54
aI201
aI58
aI543
aI540
aI666
aI542
aI63
atRp517
sI539
g2
((lp518
I96
aI102
aI806
aI73
aI10
aI18
aI53
aI540
aI158
aI543
atRp519
sI540
g2
((lp520
I96
aI705
aI34
aI91
aI357
aI102
aI32
aI73
aI7
aI526
aI80
aI18
aI51
aI53
aI54
aI41
aI57
aI538
aI543
aI63
atRp521
sI542
g2
((lp522
I705
aI102
aI871
aI201
aI107
aI18
aI850
aI53
aI540
aI543
atRp523
sI543
g2
((lp524
I96
aI34
aI91
aI100
aI102
aI947
aI73
aI158
aI80
aI18
aI787
aI53
aI54
aI41
aI57
aI58
aI539
aI540
aI538
aI542
aI63
atRp525
sI545
g2
((lp526
I1
aI771
aI7
aI662
aI538
aI27
aI540
aI947
aI543
aI34
aI676
aI562
aI51
aI54
aI568
aI57
aI58
aI576
aI579
aI72
aI78
aI216
aI90
aI611
aI102
atRp527
sI551
g2
((lp528
I579
aI580
aI102
aI584
aI587
aI591
aI520
aI596
aI21
aI54
aI599
aI347
atRp529
sI554
g2
((lp530
I102
aI301
aI599
aI57
aI58
aI63
atRp531
sI562
g2
((lp532
I102
aI80
aI21
aI630
aI57
aI90
atRp533
sI567
g2
((lp534
I1
aI7
aI18
aI21
aI662
aI922
aI27
aI859
aI36
aI677
aI40
aI568
aI57
aI58
aI573
aI190
aI63
aI576
aI705
aI839
aI584
aI841
aI591
aI84
aI599
aI216
aI345
aI90
aI347
aI92
aI96
aI100
aI102
aI109
aI757
aI118
aI596
aI252
atRp535
sI568
g2
((lp536
I1
aI262
aI18
aI27
aI670
aI36
aI677
aI40
aI72
aI567
aI57
aI58
aI190
aI63
aI839
aI584
aI73
aI216
aI90
aI91
aI100
aI102
aI109
aI118
atRp537
sI572
g2
((lp538
I1
aI36
aI662
aI102
aI593
aI596
aI118
aI599
aI920
aI345
aI347
atRp539
sI573
g2
((lp540
I1
aI771
aI7
aI662
aI538
aI27
aI540
aI947
aI543
aI34
aI676
aI562
aI51
aI54
aI568
aI57
aI58
aI576
aI579
aI72
aI78
aI216
aI90
aI611
aI102
atRp541
sI576
g2
((lp542
I545
aI100
aI102
aI84
aI599
aI58
aI92
atRp543
sI577
g2
((lp544
I33
aI91
aI100
aI965
aI102
aI458
aI43
aI36
aI80
aI18
aI21
aI324
aI58
aI671
aI92
aI90
aI63
atRp545
sI579
g2
((lp546
I1
aI520
aI12
aI920
aI538
aI27
aI540
aI543
aI545
aI676
aI584
aI947
aI54
aI568
aI573
aI580
aI583
aI72
aI591
aI80
aI596
aI216
aI90
aI100
aI102
aI114
aI118
atRp547
sI580
g2
((lp548
I1
aI579
aI102
aI551
aI584
aI108
aI705
aI72
aI67
aI596
aI54
aI216
aI538
aI27
aI947
aI543
atRp549
sI583
g2
((lp550
I1
aI12
aI920
aI538
aI27
aI540
aI543
aI676
aI42
aI584
aI947
aI54
aI567
aI57
aI58
aI956
aI576
aI579
aI72
aI591
aI80
aI596
aI599
aI90
aI100
aI102
aI114
atRp551
sI584
g2
((lp552
I33
aI100
aI102
aI72
aI587
aI78
aI591
aI592
aI593
aI596
aI920
aI58
aI347
aI378
atRp553
sI587
g2
((lp554
I33
aI614
aI102
aI591
aI592
aI596
aI956
atRp555
sI591
g2
((lp556
I33
aI579
aI580
aI614
aI102
aI583
aI584
aI335
aI562
aI920
aI956
atRp557
sI592
g2
((lp558
I36
aI102
aI587
aI591
aI596
aI956
atRp559
sI593
g2
((lp560
I1
aI102
aI591
aI592
aI562
aI347
aI956
atRp561
sI596
g2
((lp562
I1
aI262
aI67
aI920
aI538
aI27
aI543
aI36
aI72
aI947
aI567
aI568
aI58
aI63
aI579
aI580
aI583
aI584
aI587
aI592
aI341
aI599
aI216
aI96
aI100
aI102
aI108
atRp563
sI599
g2
((lp564
I576
aI102
aI584
aI520
aI596
aI757
aI58
aI572
aI63
atRp565
sI603
g2
((lp566
I416
aI82
aI99
aI100
aI357
aI102
aI7
aI73
aI292
aI301
aI18
aI947
aI757
aI105
aI57
aI58
aI63
aI671
aI282
aI255
atRp567
sI611
g2
((lp568
I32
aI387
aI100
aI326
aI102
aI40
aI614
aI591
aI592
aI562
aI660
aI21
aI57
aI58
aI91
aI92
aI90
aI926
aI36
atRp569
sI614
g2
((lp570
I102
aI335
atRp571
sI621
g2
((lp572
I512
aI65
aI630
aI100
aI357
aI102
aI487
aI42
aI711
aI397
aI719
aI50
aI307
aI32
aI333
aI311
aI33
aI378
aI61
atRp573
sI625
g2
((lp574
I512
aI65
aI630
aI100
aI357
aI102
aI487
aI42
aI711
aI397
aI719
aI50
aI307
aI32
aI333
aI311
aI33
aI378
aI61
atRp575
sI627
g2
((ltRp576
sI628
g2
((lp577
I292
aI39
aI296
aI82
aI335
aI50
aI365
aI315
aI637
atRp578
sI629
g2
((lp579
I362
aI39
aI334
aI639
atRp580
sI630
g2
((lp581
I705
aI102
aI50
aI82
aI440
aI633
aI61
atRp582
sI632
g2
((lp583
I378
aI50
aI646
atRp584
sI633
g2
((lp585
I646
aI61
aI630
aI173
atRp586
sI634
g2
((lp587
I632
aI633
aI61
aI357
atRp588
sI637
g2
((lp589
I33
aI50
aI61
aI873
atRp590
sI638
g2
((lp591
I633
aI61
aI630
atRp592
sI639
g2
((lp593
I512
aI646
aI361
aI330
aI637
aI84
aI629
aI887
aI751
aI61
atRp594
sI641
g2
((ltRp595
sI643
g2
((lp596
I61
atRp597
sI645
g2
((lp598
I378
aI50
aI646
atRp599
sI646
g2
((lp600
I651
aI401
aI630
aI632
aI634
aI61
atRp601
sI647
g2
((lp602
I61
atRp603
sI648
g2
((lp604
I512
aI771
aI628
aI61
aI637
atRp605
sI651
g2
((lp606
I61
atRp607
sI656
g2
((lp608
I33
aI100
aI357
aI39
aI488
aI331
aI82
aI334
aI365
aI440
aI50
aI886
aI313
aI632
aI292
aI890
aI335
aI637
aI510
atRp609
sI657
g2
((lp610
I40
aI841
aI100
aI102
aI80
atRp611
sI660
g2
((lp612
I592
aI770
aI579
aI36
aI677
aI102
aI584
aI301
aI205
aI80
aI341
aI662
aI567
aI281
aI956
aI190
atRp613
sI661
g2
((lp614
I959
aI391
aI16
aI660
aI21
aI920
aI922
aI669
aI43
aI175
aI181
aI58
aI949
aI451
aI964
aI583
aI73
aI972
aI80
aI599
aI96
aI102
aI488
aI239
aI63
atRp615
sI662
g2
((lp616
I1
aI7
aI18
aI21
aI670
aI545
aI34
aI292
aI677
aI40
aI562
aI567
aI568
aI57
aI58
aI572
aI63
aI576
aI839
aI73
aI36
aI90
aI347
aI100
aI485
aI102
aI108
aI109
aI239
aI113
aI757
aI251
atRp617
sI666
g2
((lp618
I21
aI538
aI27
aI540
aI282
aI543
aI34
aI676
aI947
aI567
aI568
aI57
aI58
aI671
aI63
aI576
aI67
aI72
aI73
aI80
aI82
aI99
aI216
aI90
aI611
aI100
aI357
aI102
aI105
aI187
aI118
atRp619
sI667
g2
((lp620
I480
aI27
aI100
aI102
aI57
aI43
aI239
aI657
aI18
aI52
aI21
aI662
aI87
aI292
aI58
aI91
aI90
aI63
atRp621
sI668
g2
((lp622
I96
aI705
aI100
aI80
aI58
aI254
aI63
atRp623
sI669
g2
((lp624
I391
aI16
aI21
aI676
aI39
aI40
aI169
aI43
aI175
aI181
aI58
aI63
aI330
aI974
aI80
aI96
aI100
aI102
aI109
aI239
aI757
aI41
aI253
atRp625
sI670
g2
((lp626
I96
aI385
aI102
aI839
aI105
aI43
aI109
aI756
aI661
aI567
aI568
aI949
aI63
atRp627
sI671
g2
((lp628
I672
aI64
aI1
aI677
aI102
aI7
aI105
aI839
aI109
aI80
aI18
aI52
aI87
aI100
aI90
aI27
aI668
aI58
aI63
atRp629
sI672
g2
((lp630
I385
aI91
aI677
aI102
aI839
aI109
aI294
aI80
aI177
aI82
aI67
aI52
aI27
aI87
aI671
aI63
atRp631
sI673
g2
((lp632
I416
aI739
aI292
aI102
aI262
aI877
aI82
aI567
aI252
aI63
atRp633
sI675
g2
((lp634
I330
aI490
atRp635
sI676
g2
((lp636
I96
aI416
aI770
aI964
aI102
aI391
aI520
aI265
aI172
aI461
aI239
aI92
aI109
aI54
aI58
aI252
aI669
aI254
aI63
atRp637
sI677
g2
((lp638
I770
aI86
aI391
aI21
aI926
aI33
aI291
aI292
aI293
aI934
aI39
aI296
aI298
aI301
aI302
aI305
aI306
aI307
aI313
aI58
aI444
aI317
aI63
aI705
aI324
aI841
aI333
aI334
aI335
aI80
aI82
aI470
aI93
aI96
aI100
aI357
aI102
aI490
aI319
aI253
aI382
aI661
atRp639
sI700
g2
((lp640
I65
aI630
atRp641
sI704
g2
((lp642
I65
aI102
aI487
aI716
aI173
aI719
atRp643
sI705
g2
((lp644
I908
aI32
aI33
aI34
aI292
aI39
aI50
aI307
aI317
aI63
aI65
aI711
aI716
aI333
aI82
aI100
aI93
aI868
aI102
aI850
aI61
aI881
aI371
atRp645
sI708
g2
((lp646
I65
aI99
aI705
aI712
aI873
aI716
aI82
aI440
atRp647
sI711
g2
((lp648
I65
aI99
aI705
aI712
aI873
aI716
aI82
aI440
atRp649
sI712
g2
((lp650
I65
aI102
aI705
aI82
aI719
aI50
aI630
aI440
atRp651
sI716
g2
((lp652
I711
atRp653
sI719
g2
((lp654
I873
aI50
aI700
aI65
atRp655
sI722
g2
((lp656
I417
aI420
aI102
aI71
aI41
aI42
aI398
aI16
aI401
aI787
aI73
aI185
aI778
aI51
atRp657
sI726
g2
((lp658
I404
aI71
atRp659
sI733
g2
((lp660
I229
aI868
aI357
aI102
aI39
aI72
aI41
aI330
aI18
aI335
aI50
aI628
aI757
aI319
atRp661
sI736
g2
((lp662
I73
aI742
aI102
atRp663
sI739
g2
((lp664
I770
aI357
aI102
aI458
aI401
aI255
aI349
aI773
atRp665
sI740
g2
((lp666
I357
aI102
aI73
aI43
aI78
aI109
aI750
aI528
aI51
aI526
aI41
aI349
atRp667
sI741
g2
((lp668
I448
aI484
aI487
aI360
aI394
aI39
aI461
aI403
aI789
aI967
aI765
aI757
atRp669
sI742
g2
((lp670
I770
aI741
aI102
aI73
aI42
aI43
aI401
aI41
aI185
aI315
aI351
atRp671
sI743
g2
((lp672
I16
aI401
aI50
aI403
aI51
atRp673
sI744
g2
((lp674
I770
aI102
aI39
aI777
aI778
aI43
aI401
aI372
aI379
aI394
atRp675
sI748
g2
((lp676
I770
aI262
aI394
aI18
aI27
aI670
aI41
aI43
aI175
aI177
aI949
aI315
aI63
aI965
aI328
aI73
aI447
aI974
aI463
aI96
aI481
aI740
aI102
aI488
aI489
aI750
aI756
aI757
aI169
aI379
aI254
atRp677
sI750
g2
((lp678
I752
aI964
aI965
aI102
aI73
aI109
aI782
aI751
aI528
aI177
aI50
aI676
aI181
aI41
aI100
aI265
aI669
aI357
atRp679
sI751
g2
((lp680
I416
aI801
aI34
aI67
aI806
aI102
aI33
aI520
aI73
aI247
aI365
aI78
aI818
aI84
aI41
aI967
aI9
aI57
aI58
aI828
aI798
atRp681
sI752
g2
((lp682
I225
aI771
aI102
aI359
aI488
aI43
aI78
aI365
aI334
aI751
aI528
aI177
aI51
aI757
aI956
atRp683
sI754
g2
((lp684
I96
aI770
aI740
aI485
aI360
aI73
aI43
aI175
aI114
aI404
aI489
aI372
aI773
atRp685
sI755
g2
((lp686
I740
aI965
aI102
aI50
aI51
aI788
aI949
aI758
atRp687
sI756
g2
((lp688
I403
aI405
aI33
aI291
aI292
aI43
aI173
aI818
aI313
aI58
aI315
aI458
aI63
aI457
aI330
aI333
aI96
aI100
aI357
aI102
aI490
aI317
aI757
aI319
atRp689
sI757
g2
((lp690
I0
aI770
aI403
aI33
aI292
aI39
aI296
aI43
aI302
aI50
aI313
aI444
aI447
aI451
aI73
aI330
aI461
aI334
aI468
aI956
aI349
aI485
aI480
aI353
aI483
aI868
aI357
aI102
aI487
aI488
aI489
aI359
aI365
aI360
aI372
aI376
aI378
aI383
aI255
atRp691
sI758
g2
((lp692
I806
aI73
aI755
aI357
aI102
atRp693
sI762
g2
((lp694
I397
aI806
aI357
aI102
aI773
atRp695
sI763
g2
((lp696
I96
aI770
aI740
aI485
aI360
aI73
aI43
aI175
aI114
aI404
aI489
aI372
aI773
atRp697
sI765
g2
((lp698
I419
aI484
aI357
aI518
aI487
aI360
aI41
aI394
aI39
aI370
aI367
aI401
aI50
aI403
aI405
aI440
aI485
aI789
atRp699
sI769
g2
((lp700
I51
aI102
aI806
aI73
aI173
aI177
aI786
aI787
atRp701
sI770
g2
((lp702
I403
aI405
aI33
aI291
aI292
aI43
aI173
aI818
aI313
aI58
aI315
aI458
aI63
aI457
aI330
aI333
aI96
aI100
aI357
aI102
aI490
aI317
aI757
aI319
atRp703
sI771
g2
((lp704
I528
aI18
aI21
aI416
aI801
aI806
aI41
aI51
aI201
aI73
aI330
aI971
aI78
aI84
aI469
aI474
aI219
aI225
aI102
aI234
aI748
aI751
atRp705
sI773
g2
((lp706
I41
aI394
aI779
aI397
aI440
aI762
aI763
aI349
atRp707
sI774
g2
((lp708
I96
aI51
aI260
aI773
aI102
aI73
aI394
aI397
aI526
aI752
aI401
aI786
aI403
aI755
aI787
aI762
atRp709
sI775
g2
((lp710
I448
aI484
aI487
aI360
aI394
aI39
aI461
aI403
aI789
aI967
aI765
aI757
atRp711
sI777
g2
((lp712
I770
aI739
aI744
aI41
aI394
aI756
aI404
aI778
aI351
atRp713
sI778
g2
((lp714
I357
aI102
aI744
aI777
aI779
aI50
aI789
aI741
atRp715
sI779
g2
((lp716
I739
aI964
aI965
aI177
aI778
aI43
aI974
aI785
aI403
aI404
aI949
aI254
aI773
atRp717
sI782
g2
((lp718
I357
aI455
aI73
aI330
aI16
aI50
aI404
aI468
aI474
atRp719
sI785
g2
((lp720
I65
aI324
aI487
aI394
aI39
aI173
aI398
aI353
aI401
aI362
aI757
aI887
aI440
aI409
aI349
aI479
atRp721
sI786
g2
((lp722
I769
aI102
aI774
aI743
aI41
aI398
aI177
aI787
aI949
atRp723
sI787
g2
((lp724
I769
aI740
aI965
aI41
aI12
aI786
aI51
aI404
atRp725
sI788
g2
((lp726
I51
aI771
aI357
aI102
aI73
aI12
aI528
aI16
aI179
aI21
aI758
aI787
atRp727
sI789
g2
((lp728
I357
aI102
aI487
aI489
aI460
aI461
aI403
aI468
aI73
aI440
aI765
atRp729
sI798
g2
((lp730
I416
aI750
aI102
aI41
aI12
aI78
aI751
aI177
aI50
aI51
aI84
aI949
aI526
atRp731
sI801
g2
((lp732
I512
aI771
aI39
aI78
aI751
aI528
aI51
aI628
aI440
aI84
aI61
atRp733
sI806
g2
((lp734
I773
aI102
aI177
aI73
aI394
aI78
aI751
aI401
aI50
aI758
aI762
aI349
atRp735
sI817
g2
((lp736
I43
aI78
aI102
aI887
atRp737
sI818
g2
((lp738
I0
aI39
aI488
aI78
aI84
aI281
aI315
atRp739
sI824
g2
((lp740
I102
aI520
aI73
aI78
aI751
aI528
aI51
aI84
aI41
aI219
atRp741
sI828
g2
((lp742
I84
aI78
aI102
aI751
atRp743
sI836
g2
((lp744
I1
aI520
aI908
aI660
aI662
aI281
aI282
aI677
aI301
aI562
aI54
aI568
aI57
aI63
aI576
aI197
aI205
aI80
aI90
aI92
aI228
aI102
aI105
aI118
atRp745
sI838
g2
((lp746
I545
aI100
aI102
aI84
aI599
aI58
aI92
atRp747
sI839
g2
((lp748
I1
aI7
aI599
aI18
aI21
aI662
aI920
aI922
aI27
aI668
aI671
aI416
aI545
aI347
aI36
aI294
aI562
aI52
aI567
aI568
aI57
aI58
aI63
aI672
aI584
aI80
aI87
aI228
aI90
aI91
aI92
aI96
aI100
aI102
aI105
aI109
aI239
aI118
atRp749
sI841
g2
((lp750
I480
aI27
aI100
aI102
aI57
aI43
aI239
aI657
aI18
aI52
aI21
aI662
aI87
aI292
aI58
aI91
aI90
aI63
atRp751
sI842
g2
((lp752
I365
aI21
aI676
aI293
aI39
aI40
aI41
aI567
aI313
aI58
aI63
aI320
aI705
aI839
aI72
aI333
aI334
aI80
aI82
aI87
aI292
aI93
aI96
aI867
aI100
aI102
aI109
aI118
aI247
atRp753
sI845
g2
((lp754
I864
aI385
aI705
aI39
aI82
aI882
aI883
aI852
aI858
aI251
atRp755
sI847
g2
((lp756
I261
aI365
aI27
aI416
aI292
aI58
aI956
aI757
aI330
aI334
aI82
aI852
aI858
aI859
aI96
aI100
aI102
aI359
aI63
aI877
aI255
aI245
aI247
aI888
aI251
aI253
aI254
aI383
atRp757
sI848
g2
((lp758
I292
aI43
aI335
aI82
aI307
aI628
aI890
atRp759
sI849
g2
((lp760
I482
aI931
aI330
aI82
atRp761
sI850
g2
((lp762
I881
aI82
aI859
aI852
atRp763
sI851
g2
((lp764
I33
aI516
aI102
aI1
aI39
aI82
aI367
aI50
aI374
aI375
atRp765
sI852
g2
((lp766
I33
aI872
aI845
aI879
aI82
aI858
atRp767
sI854
g2
((lp768
I82
aI251
aI292
aI63
atRp769
sI855
g2
((lp770
I705
aI82
aI100
aI102
aI854
atRp771
sI856
g2
((lp772
I292
aI490
aI43
aI877
aI461
aI82
aI468
aI470
atRp773
sI857
g2
((lp774
I385
aI39
aI873
aI871
aI879
aI82
aI883
aI855
aI888
aI858
aI378
aI863
atRp775
sI858
g2
((lp776
I864
aI65
aI866
aI292
aI708
aI0
aI705
aI872
aI41
aI371
aI716
aI877
aI82
aI883
aI852
aI888
aI39
aI890
aI863
atRp777
sI859
g2
((lp778
I27
aI292
aI872
aI847
aI80
aI82
aI886
aI251
aI100
aI58
aI383
aI860
aI63
atRp779
sI860
g2
((lp780
I859
aI461
aI255
atRp781
sI863
g2
((lp782
I864
aI292
aI869
aI102
aI873
aI82
aI852
aI858
atRp783
sI864
g2
((lp784
I385
aI867
aI292
aI865
aI859
aI871
aI845
aI82
aI883
aI852
aI888
aI313
aI858
aI27
aI860
aI63
atRp785
sI865
g2
((lp786
I82
aI251
atRp787
sI866
g2
((lp788
I82
atRp789
sI867
g2
((lp790
I96
aI292
aI357
aI871
aI330
aI494
aI82
aI757
aI470
aI255
atRp791
sI868
g2
((lp792
I33
aI82
aI100
aI378
aI705
atRp793
sI869
g2
((lp794
I65
aI866
aI292
aI873
aI82
aI863
atRp795
sI870
g2
((lp796
I82
atRp797
sI871
g2
((lp798
I33
aI34
aI867
aI105
aI847
aI27
aI82
aI383
aI858
aI251
aI255
atRp799
sI872
g2
((lp800
I864
aI385
aI705
aI39
aI82
aI882
aI883
aI852
aI858
aI251
atRp801
sI873
g2
((lp802
I65
aI708
aI102
aI711
aI39
aI397
aI719
aI82
atRp803
sI875
g2
((lp804
I385
aI39
aI873
aI871
aI879
aI82
aI883
aI855
aI888
aI858
aI378
aI863
atRp805
sI877
g2
((lp806
I96
aI251
aI292
aI357
aI102
aI39
aI43
aI365
aI335
aI82
aI852
aI757
aI470
aI452
aI378
aI847
aI637
aI63
atRp807
sI879
g2
((lp808
I875
aI908
aI82
aI852
aI888
aI858
aI859
aI863
atRp809
sI880
g2
((lp810
I867
aI292
aI854
aI63
atRp811
sI881
g2
((lp812
I377
aI82
aI102
aI39
atRp813
sI882
g2
((lp814
I852
aI858
aI404
aI82
aI39
atRp815
sI883
g2
((lp816
I864
aI858
aI852
aI847
atRp817
sI884
g2
((lp818
I864
aI872
aI845
aI82
aI883
aI858
atRp819
sI886
g2
((lp820
I96
aI33
aI379
aI292
aI359
aI877
aI847
aI320
aI82
aI307
aI628
aI757
aI568
aI100
aI58
aI859
aI63
atRp821
sI887
g2
((lp822
I705
aI211
aI375
aI173
aI82
aI307
aI215
atRp823
sI888
g2
((lp824
I704
aI102
aI711
aI41
aI495
aI82
aI852
aI858
aI463
atRp825
sI889
g2
((lp826
I320
aI33
aI100
aI293
aI711
aI296
aI871
aI82
aI967
aI292
aI705
aI704
atRp827
sI890
g2
((lp828
I512
aI33
aI291
aI324
aI102
aI390
aI39
aI296
aI335
aI848
aI305
aI82
aI326
aI292
aI858
aI868
aI100
atRp829
sI898
g2
((lp830
I58
aI86
atRp831
sI908
g2
((lp832
I91
aI132
atRp833
sI916
g2
((lp834
I545
aI100
aI102
aI84
aI599
aI58
aI92
atRp835
sI920
g2
((lp836
I1
aI262
aI7
aI908
aI18
aI922
aI33
aI34
aI91
aI36
aI301
aI72
aI64
aI579
aI583
aI584
aI12
aI591
aI87
aI345
aI90
aI347
aI92
aI99
aI100
aI102
aI113
aI545
aI118
atRp837
sI922
g2
((lp838
I1
aI12
aI920
aI33
aI34
aI676
aI677
aI584
aI54
aI63
aI320
aI67
aI72
aI591
aI80
aI36
aI90
aI347
aI92
aI100
aI102
aI114
aI118
atRp839
sI923
g2
((lp840
I93
aI942
atRp841
sI926
g2
((lp842
I33
aI291
aI934
aI39
aI330
aI43
aI306
aI611
aI57
aI313
aI93
atRp843
sI927
g2
((lp844
I93
atRp845
sI930
g2
((lp846
I61
aI43
aI324
aI93
aI463
atRp847
sI931
g2
((lp848
I93
aI942
atRp849
sI932
g2
((lp850
I93
atRp851
sI934
g2
((lp852
I480
aI770
aI292
aI485
aI39
aI330
aI43
aI306
aI468
aI470
aI313
aI63
aI93
aI926
aI319
atRp853
sI935
g2
((lp854
I93
atRp855
sI937
g2
((lp856
I93
atRp857
sI940
g2
((lp858
I93
atRp859
sI941
g2
((lp860
I931
aI923
aI93
atRp861
sI942
g2
((lp862
I931
aI923
atRp863
sI943
g2
((lp864
I320
aI33
aI292
aI326
aI102
aI40
aI100
aI93
aI63
atRp865
sI946
g2
((lp866
I96
aI197
aI100
aI965
aI102
aI73
aI41
aI43
aI770
aI847
aI18
aI82
aI670
aI247
aI219
aI958
aI357
atRp867
sI947
g2
((lp868
I262
aI7
aI520
aI9
aI18
aI538
aI27
aI540
aI669
aI542
aI543
aI32
aI539
aI43
aI301
aI51
aI53
aI58
aI63
aI64
aI201
aI78
aI847
aI80
aI980
aI96
aI739
aI100
aI102
aI109
aI113
aI114
aI383
aI757
aI378
aI379
aI254
aI255
atRp869
sI949
g2
((lp870
I96
aI197
aI100
aI965
aI102
aI73
aI41
aI43
aI770
aI847
aI18
aI82
aI670
aI247
aI219
aI958
aI357
atRp871
sI950
g2
((lp872
I770
aI262
aI394
aI18
aI27
aI670
aI41
aI43
aI175
aI177
aI949
aI315
aI63
aI965
aI328
aI73
aI447
aI974
aI463
aI96
aI481
aI740
aI102
aI488
aI489
aI750
aI756
aI757
aI169
aI379
aI254
atRp873
sI951
g2
((lp874
I403
aI405
aI33
aI291
aI292
aI43
aI173
aI818
aI313
aI58
aI315
aI458
aI63
aI457
aI330
aI333
aI96
aI100
aI357
aI102
aI490
aI317
aI757
aI319
atRp875
sI952
g2
((lp876
I256
aI257
aI770
aI259
aI260
aI261
aI262
aI9
aI266
aI18
aI540
aI669
aI965
aI41
aI265
aI757
aI197
aI73
aI847
aI100
aI102
aI63
aI109
aI114
aI245
aI247
aI250
aI251
aI252
aI253
aI254
aI255
atRp877
sI956
g2
((lp878
I96
aI33
aI484
aI357
aI102
aI487
aI488
aI489
aI330
aI43
aI461
aI591
aI625
aI50
aI949
aI247
aI920
aI965
aI458
aI254
aI479
atRp879
sI958
g2
((lp880
I96
aI102
aI947
aI949
aI247
aI254
aI53
atRp881
sI959
g2
((lp882
I770
aI262
aI391
aI18
aI27
aI540
aI670
aI543
aI673
aI39
aI41
aI43
aI949
aI567
aI63
aI965
aI201
aI978
aI757
aI96
aI102
aI359
aI114
aI245
aI118
aI247
aI252
aI254
atRp883
sI960
g2
((lp884
I96
aI966
aI41
aI43
aI109
aI334
aI877
aI757
aI254
atRp885
sI961
g2
((lp886
I448
aI96
aI450
aI451
aI102
aI330
aI43
aI173
aI494
aI463
aI50
aI949
aI495
aI458
aI661
atRp887
sI963
g2
((lp888
I96
aI102
aI947
aI949
aI247
aI254
aI53
atRp889
sI964
g2
((lp890
I770
aI10
aI16
aI18
aI661
aI669
aI676
aI422
aI39
aI41
aI43
aI175
aI949
aI457
aI956
aI63
aI73
aI458
aI972
aI461
aI974
aI96
aI741
aI102
aI488
aI756
aI169
atRp891
sI965
g2
((lp892
I770
aI526
aI528
aI18
aI21
aI27
aI28
aI670
aI39
aI41
aI43
aI51
aI73
aI78
aI980
aI219
aI96
aI102
aI748
aI109
aI756
aI757
atRp893
sI966
g2
((lp894
I257
aI769
aI526
aI528
aI18
aI788
aI27
aI669
aI676
aI39
aI41
aI43
aI51
aI949
aI952
aI53
aI480
aI965
aI947
aI73
aI458
aI461
aI78
aI980
aI219
aI96
aI102
aI109
aI752
aI757
aI763
atRp895
sI967
g2
((lp896
I0
aI770
aI403
aI33
aI292
aI39
aI296
aI43
aI302
aI50
aI313
aI444
aI447
aI451
aI73
aI330
aI461
aI334
aI468
aI956
aI349
aI485
aI480
aI353
aI483
aI868
aI357
aI102
aI487
aI488
aI489
aI359
aI365
aI360
aI372
aI376
aI378
aI383
aI255
atRp897
sI971
g2
((lp898
I96
aI16
aI770
aI771
aI260
aI102
aI73
aI43
aI172
aI175
aI528
aI757
aI661
aI169
aI959
atRp899
sI972
g2
((lp900
I96
aI740
aI102
aI458
aI43
aI661
atRp901
sI974
g2
((lp902
I96
aI181
aI965
aI102
aI959
atRp903
sI978
g2
((lp904
I96
aI740
aI102
aI458
aI43
aI661
atRp905
sI979
g2
((lp906
I770
aI526
aI528
aI18
aI21
aI27
aI28
aI670
aI39
aI41
aI43
aI51
aI73
aI78
aI980
aI219
aI96
aI102
aI748
aI109
aI756
aI757
atRp907
sI980
g2
((lp908
I262
aI391
aI16
aI27
aI670
aI672
aI41
aI43
aI175
aI181
aI567
aI58
aI949
aI965
aI7
aI859
aI96
aI102
aI107
aI114
aI247
aI63
aI252
aI254
atRp909
s(dp910
S'/wiki/Gracenote'
p911
I204
sS'/wiki/Hewlett-Packard_Company'
p912
I621
sS'/wiki/OS_X_Leopard'
p913
I946
sS'/wiki/Apple_Macintosh'
p914
I394
sS'/wiki/Siri'
p915
I1
sS'/wiki/Internet_privacy'
p916
I855
sS'/wiki/Development_of_Doom'
p917
I168
sS'/wiki/Rhapsody_(operating_system)'
p918
I175
sS'/wiki/Safari_(browser)'
p919
I952
sS'/wiki/IPhone'
p920
I100
sS'/wiki/Tab_(GUI)'
p921
I245
sS'/wiki/Apple_I'
p922
I397
sS'/wiki/Web_search_engine'
p923
I845
sS'/wiki/Google_Chrome'
p924
I847
sS'/wiki/IMovie'
p925
I543
sS'/wiki/Pixar'
p926
I398
sS'/wiki/Usage_share_of_operating_systems'
p927
I444
sS'/wiki/ID3'
p928
I191
sS'/wiki/Symbian'
p929
I291
sS'/wiki/Android_(operating_system)'
p930
I292
sS'/wiki/Apple_motion_coprocessors'
p931
I572
sS'/wiki/BlackBerry_10'
p932
I293
sS'/wiki/IPod_game'
p933
I280
sS'/wiki/MS-DOS'
p934
I349
sS'/wiki/Google_Nexus'
p935
I848
sS'/wiki/Google_Data_Centers'
p936
I849
sS'/wiki/SuperDrive'
p937
I806
sS'/wiki/Apple_Worldwide_Developers_Conference'
p938
I109
sS'/wiki/Facebook'
p939
I705
sS'/wiki/IPad_Mini_(first_generation)'
p940
I573
sS'/wiki/Apple_Software_Update'
p941
I260
sS'/wiki/ICloud'
p942
I7
sS'/wiki/IPod_Classic'
p943
I281
sS'/wiki/McIntosh_(apple)'
p944
I736
sS'/wiki/IDVD'
p945
I539
sS'/wiki/Macworld/iWorld'
p946
I9
sS'/wiki/IPhone_(1st_generation)'
p947
I294
sS'/wiki/AdSense'
p948
I850
sS'/wiki/Ported'
p949
I445
sS'/wiki/Artificial_intelligence'
p950
I851
sS'/wiki/Plex_(software)'
p951
I227
sS'/wiki/EMC_Corporation'
p952
I632
sS'/wiki/BASIC'
p953
I351
sS'/wiki/Mac_OS_X_Leopard'
p954
I949
sS'/wiki/Final_Cut_Pro'
p955
I10
sS'/wiki/Motorola_68000_series'
p956
I782
sS'/wiki/PageRank'
p957
I883
sS'/wiki/Automator_(software)'
p958
I950
sS'/wiki/Windows_Mobile'
p959
I296
sS'/wiki/Smartwatch'
p960
I390
sS'/wiki/Jonathan_Ive'
p961
I12
sS'/wiki/OS_X_Mountain_Lion'
p962
I254
sS'/wiki/Excite'
p963
I882
sS'/wiki/User_mode'
p964
I446
sS'/wiki/Preemptive_multitasking'
p965
I447
sS'/wiki/Graphical_User_Interface'
p966
I951
sS'/wiki/Xbox_One'
p967
I353
sS'/wiki/Touchpad'
p968
I818
sS'/wiki/Computer_file'
p969
I448
sS'/wiki/NeXTstation'
p970
I176
sS'/wiki/Lightning_(connector)'
p971
I576
sS'/wiki/List_of_iOS_devices'
p972
I577
sS'/wiki/Daniel_Kottke'
p973
I396
sS'/wiki/Apple_Store'
p974
I99
sS'/wiki/Research_In_Motion'
p975
I298
sS'/wiki/NeXT'
p976
I16
sS'/wiki/Apple_II'
p977
I401
sS'/wiki/Fairchild_Semiconductor'
p978
I719
sS'/wiki/Hewlett_Packard'
p979
I625
sS'/wiki/Apple_ID'
p980
I113
sS'/wiki/Desktop_publishing'
p981
I739
sS'/wiki/OS_X_Mavericks'
p982
I114
sS'/wiki/Nokia_Siemens_Network'
p983
I940
sS'/wiki/Operating_systems'
p984
I355
sS'/wiki/Power_Macintosh'
p985
I740
sS'/wiki/ITunes'
p986
I18
sS'/wiki/Jailbreaking_for_iOS'
p987
I667
sS'/wiki/Touchscreen'
p988
I301
sS'/wiki/Operating_system_services'
p989
I449
sS'/wiki/NeXTSTEP'
p990
I181
sS'/wiki/Google_Analytics'
p991
I854
sS'/wiki/Acid2'
p992
I261
sS'/wiki/Limerick'
p993
I627
sS'/wiki/TvOS'
p994
I239
sS'/wiki/Windows_10_Mobile'
p995
I302
sS'/wiki/Solaris_(operating_system)'
p996
I450
sS'/wiki/DRM-free'
p997
I733
sS'/wiki/POSIX'
p998
I451
sS'/wiki/Apple_Lisa'
p999
I403
sS'/wiki/Shell_(computing)'
p1000
I452
sS'/wiki/IPad_Mini_2'
p1001
I579
sS'/wiki/IPad_Mini_3'
p1002
I580
sS'/wiki/IPad_Mini_4'
p1003
I551
sS'/wiki/IPhone_5s'
p1004
I348
sS'/wiki/Finnish_Cable_Works'
p1005
I935
sS'/wiki/Master_Control_Program'
p1006
I454
sS'/wiki/Foxconn'
p1007
I86
sS'/wiki/Apple_Computer'
p1008
I404
sS'/wiki/1984_(advertisement)'
p1009
I405
sS'/wiki/Cocoa_(API)'
p1010
I669
sS'/wiki/IPhone_5S'
p1011
I920
sS'/wiki/Asus'
p1012
I628
sS'/wiki/Remote_(Apple_software)'
p1013
I221
sS'/wiki/Cisco_IOS'
p1014
I675
sS'/wiki/IPhone_5C'
p1015
I922
sS'/wiki/Mobile_operating_system'
p1016
I677
sS'/wiki/Apple_Inc'
p1017
I0
sS'/wiki/Steve_Jobs_(film)'
p1018
I722
sS'/wiki/Computer_program'
p1019
I457
sS'/wiki/Unix-like'
p1020
I458
sS'/wiki/Apple_M8'
p1021
I341
sS'/wiki/Apple_TV'
p1022
I21
sS'/wiki/Multi-tasking'
p1023
I459
sS'/wiki/IPhone_3G'
p1024
I87
sS'/wiki/Personal_computer'
p1025
I357
sS'/wiki/Jef_Raskin'
p1026
I742
sS'/wiki/Nokia,_Finland'
p1027
I923
sS'/wiki/Menlo_Park,_California'
p1028
I716
sS'/wiki/Interrupt'
p1029
I460
sS'/wiki/Apple_Mouse'
p1030
I743
sS'/wiki/Touch_ID'
p1031
I584
sS'/wiki/Larry_Page'
p1032
I858
sS'/wiki/Scheduling_(computing)'
p1033
I462
sS'/wiki/Apple_S1'
p1034
I387
sS'/wiki/PowerBook_G4'
p1035
I798
sS'/wiki/Jobs_(film)'
p1036
I443
sS'/wiki/Safari_(web_browser)'
p1037
I27
sS'/wiki/Music_visualization'
p1038
I211
sS'/wiki/Apple_Store_(retail)'
p1039
I28
sS'/wiki/Claris'
p1040
I744
sS'/wiki/IPhone_(original)'
p1041
I303
sS'/wiki/64-bit_computing'
p1042
I956
sS'/wiki/1984_(television_commercial)'
p1043
I408
sS'/wiki/Apple_Lightning'
p1044
I838
sS'/wiki/Alienware'
p1045
I629
sS'/wiki/Find_My_iPhone'
p1046
I108
sS'/wiki/Venture_capital'
p1047
I704
sS'/wiki/Gmail'
p1048
I859
sS'/wiki/Webmail'
p1049
I860
sS'/wiki/Apple_A8X'
p1050
I587
sS'/wiki/IPod'
p1051
I32
sS'/wiki/Windows_XP'
p1052
I359
sS'/wiki/OS/2'
p1053
I360
sS'/wiki/IPhoto'
p1054
I540
sS'/wiki/UNIX'
p1055
I463
sS'/wiki/Smartphone'
p1056
I33
sS'/wiki/Nokia_Networks'
p1057
I932
sS'/wiki/JavaScript'
p1058
I251
sS'/wiki/Time_Machine_(Apple_software)'
p1059
I958
sS'/wiki/Hard_disk_drives'
p1060
I464
sS'/wiki/IPad_Mini_(1st_generation)'
p1061
I545
sS'/wiki/Dock_connector'
p1062
I282
sS'/wiki/WebObjects'
p1063
I172
sS'/wiki/I-mode'
p1064
I304
sS'/wiki/Tim_Cook'
p1065
I34
sS'/wiki/Toy_Story'
p1066
I409
sS'/wiki/OS_X_El_Capitan'
p1067
I252
sS'/wiki/Round_Rock,_Texas'
p1068
I633
sS'/wiki/Device_drivers'
p1069
I465
sS'/wiki/IBook'
p1070
I526
sS'/wiki/IPhone_6'
p1071
I36
sS'/wiki/Aqua_(user_interface)'
p1072
I959
sS'/wiki/Googol'
p1073
I866
sS'/wiki/WebKit'
p1074
I253
sS'/wiki/Dell_Technologies'
p1075
I634
sS'/wiki/IPad_(third_generation)'
p1076
I666
sS'/wiki/Apple%E2%80%93Intel_transition'
p1077
I750
sS'/wiki/AirPlay'
p1078
I228
sS'/wiki/BlackBerry_Limited'
p1079
I305
sS'/wiki/MacBook_Air'
p1080
I751
sS'/wiki/Jolla'
p1081
I306
sS'/wiki/Santa_Clara_County'
p1082
I712
sS'/wiki/Apple_A5'
p1083
I562
sS'/wiki/Apple_A7'
p1084
I591
sS'/wiki/Apple_A8'
p1085
I592
sS'/wiki/Apple_A9'
p1086
I593
sS'/wiki/Embedded_system'
p1087
I468
sS'/wiki/Netflix'
p1088
I229
sS'/wiki/Nokia_OZO'
p1089
I937
sS'/wiki/Microsoft'
p1090
I39
sS'/wiki/Apple_Watch'
p1091
I40
sS'/wiki/Microsoft_Surface'
p1092
I361
sS'/wiki/Xbox'
p1093
I362
sS'/wiki/NeXTcube'
p1094
I179
sS'/wiki/IWeb'
p1095
I542
sS'/wiki/JavaScript_engine'
p1096
I256
sS'/wiki/Steve_Jobs'
p1097
I41
sS'/wiki/System_7_(Macintosh)'
p1098
I754
sS'/wiki/Steve_Wozniak'
p1099
I42
sS'/wiki/Boot_Camp_(software)'
p1100
I752
sS'/wiki/AmigaOS'
p1101
I469
sS'/wiki/Soundtrack_Pro'
p1102
I160
sS'/wiki/IPad_accessories'
p1103
I554
sS'/wiki/Alphabet_Inc.'
p1104
I863
sS'/wiki/JavaScriptCore'
p1105
I259
sS'/wiki/Google_Search'
p1106
I864
sS'/wiki/Mail_(OS_X)'
p1107
I980
sS'/wiki/Linux_kernel'
p1108
I470
sS'/wiki/Expos%C3%A9_(Mac_OS_X)'
p1109
I960
sS'/wiki/Google_News'
p1110
I865
sS'/wiki/Mac_OS_X_v10.6'
p1111
I265
sS'/wiki/UNIX_03'
p1112
I961
sS'/wiki/IBM_Watson'
p1113
I506
sS'/wiki/IPhone_6S'
p1114
I347
sS'/wiki/Xbox_(console)'
p1115
I364
sS'/wiki/Acer_Inc.'
p1116
I637
sS'/wiki/IBM'
p1117
I50
sS'/wiki/Time_Machine_(OS_X)'
p1118
I963
sS'/wiki/Pascal_(programming_language)'
p1119
I741
sS'/wiki/Power_Macintosh_G3_(Blue_%26_White)'
p1120
I755
sS'/wiki/OS_X_Yosemite'
p1121
I262
sS'/wiki/IWork'
p1122
I947
sS'/wiki/Las_Cimas'
p1123
I638
sS'/wiki/IMac'
p1124
I51
sS'/wiki/Windows_8'
p1125
I365
sS'/wiki/GUI'
p1126
I756
sS'/wiki/Nokia'
p1127
I93
sS'/wiki/IPhone_3GS'
p1128
I52
sS'/wiki/PDA'
p1129
I311
sS'/wiki/Mac_Pro'
p1130
I528
sS'/wiki/ILife'
p1131
I53
sS'/wiki/IPad_Mini'
p1132
I54
sS'/wiki/Microsoft_Windows'
p1133
I757
sS'/wiki/HTC'
p1134
I307
sS'/wiki/Power_Mac_G4'
p1135
I758
sS'/wiki/WebCore'
p1136
I266
sS'/wiki/OLED'
p1137
I312
sS'/wiki/IPod_touch_(fifth_generation)'
p1138
I836
sS'/wiki/Final_Cut_Pro_X'
p1139
I161
sS'/wiki/Regent_Street'
p1140
I267
sS'/wiki/GarageBand'
p1141
I538
sS'/wiki/IPad_2'
p1142
I57
sS'/wiki/Windows_Phone'
p1143
I313
sS'/wiki/Google_Earth'
p1144
I867
sS'/wiki/Social_networking_service'
p1145
I868
sS'/wiki/IPad'
p1146
I58
sS'/wiki/IPad_Air_2'
p1147
I596
sS'/wiki/Rod_Holt'
p1148
I411
sS'/wiki/Googleplex'
p1149
I869
sS'/wiki/Dell_XPS'
p1150
I639
sS'/wiki/MobileMe'
p1151
I107
sS'/wiki/High_Point_University'
p1152
I431
sS'/wiki/OpenStep'
p1153
I169
sS'/wiki/IPad_Pro'
p1154
I599
sS'/wiki/Google_Energy'
p1155
I870
sS'/wiki/IBM_System_x'
p1156
I510
sS'/wiki/Processor_time'
p1157
I472
sS'/wiki/Dell'
p1158
I61
sS'/wiki/Time-sharing'
p1159
I473
sS'/wiki/Classic_Environment'
p1160
I748
sS'/wiki/The_Weather_Company'
p1161
I511
sS'/wiki/Arboretum'
p1162
I641
sS'/wiki/System_7'
p1163
I763
sS'/wiki/IOS'
p1164
I63
sS'/wiki/IBM_PC'
p1165
I765
sS'/wiki/Software_Update'
p1166
I250
sS'/wiki/IOS_10'
p1167
I662
sS'/wiki/Dell_monitors'
p1168
I643
sS'/wiki/Carbon_(API)'
p1169
I964
sS'/wiki/Search_engine'
p1170
I872
sS'/wiki/IMac_(Intel-based)'
p1171
I824
sS'/wiki/Mountain_View,_California'
p1172
I873
sS'/wiki/Personal_digital_assistant'
p1173
I315
sS'/wiki/Palo_Alto'
p1174
I708
sS'/wiki/IPad_(first_generation)'
p1175
I603
sS'/wiki/Cupertino,_California'
p1176
I64
sS'/wiki/Gizmodo'
p1177
I908
sS'/wiki/Criticism_of_Google'
p1178
I875
sS'/wiki/OpenBSD'
p1179
I474
sS'/wiki/Computer'
p1180
I173
sS'/wiki/Quartz_(graphics_layer)'
p1181
I974
sS'/wiki/Chrome_OS'
p1182
I877
sS'/wiki/Mobile_device'
p1183
I319
sS'/wiki/Google_Fuchsia'
p1184
I856
sS'/wiki/Lightning_connector'
p1185
I916
sS'/wiki/OS/360'
p1186
I476
sS'/wiki/Bill_Gates'
p1187
I367
sS'/wiki/Podcast'
p1188
I205
sS'/wiki/BSD_(operating_system)'
p1189
I477
sS'/wiki/Firefox_OS'
p1190
I317
sS'/wiki/Doom_(series)'
p1191
I174
sS'/wiki/Darwin_(operating_system)'
p1192
I661
sS'/wiki/Genius_Bar'
p1193
I270
sS'/wiki/FaceTime'
p1194
I67
sS'/wiki/Mac_OS_X_Tiger'
p1195
I965
sS'/wiki/EMac'
p1196
I769
sS'/wiki/OS_X_Snow_Leopard'
p1197
I966
sS'/wiki/Web_browser'
p1198
I255
sS'/wiki/OS_X'
p1199
I416
sS'/wiki/Mobile_app'
p1200
I320
sS'/wiki/Graphical_user_interface'
p1201
I770
sS'/wiki/Dell_EMC'
p1202
I645
sS'/wiki/AMD_Radeon_Pro'
p1203
I817
sS'/wiki/Windows'
p1204
I967
sS'/wiki/IOS_jailbreaking'
p1205
I841
sS'/wiki/Nuance_Communications'
p1206
I104
sS'/wiki/Waze'
p1207
I889
sS'/wiki/International_Business_Machines'
p1208
I370
sS'/wiki/John_Sculley'
p1209
I71
sS'/wiki/OS_X_Lion'
p1210
I257
sS'/wiki/IOS_App_Store'
p1211
I842
sS'/wiki/ITunes_Store'
p1212
I72
sS'/wiki/Macintosh_SE'
p1213
I762
sS'/wiki/Walter_Isaacson'
p1214
I417
sS'/wiki/Dancing_with_the_Stars_(U.S._season_8)'
p1215
I438
sS'/wiki/Kernel_(computing)'
p1216
I480
sS'/wiki/XBMC'
p1217
I234
sS'/wiki/Macintosh'
p1218
I73
sS'/wiki/C_(programming_language)'
p1219
I461
sS'/wiki/Kernel_(computer_science)'
p1220
I481
sS'/wiki/Finnish_Rubber_Works'
p1221
I941
sS'/wiki/H1B_visa'
p1222
I381
sS'/wiki/Winston-Salem,_North_Carolina'
p1223
I647
sS'/wiki/Computer_software'
p1224
I482
sS'/wiki/Don%27t_be_evil'
p1225
I879
sS'/wiki/Windows_95'
p1226
I372
sS'/wiki/Reed_College'
p1227
I418
sS'/wiki/Tampere'
p1228
I942
sS'/wiki/InPhonic'
p1229
I726
sS'/wiki/Multi-user'
p1230
I483
sS'/wiki/IMac_G3'
p1231
I787
sS'/wiki/Mainframe_computer'
p1232
I484
sS'/wiki/OS_X_Server'
p1233
I971
sS'/wiki/Mobile_phone'
p1234
I324
sS'/wiki/Macintosh_II'
p1235
I773
sS'/wiki/File_system'
p1236
I485
sS'/wiki/Apple_Keyboard'
p1237
I774
sS'/wiki/Operating_system'
p1238
I43
sS'/wiki/Mac_OS_X_v10.0'
p1239
I972
sS'/wiki/BlackBerry'
p1240
I326
sS'/wiki/Helvetica'
p1241
I673
sS'/wiki/Xcode'
p1242
I676
sS'/wiki/Inspiron'
p1243
I648
sS'/wiki/Supercomputer'
p1244
I479
sS'/wiki/Retina_Display'
p1245
I520
sS'/wiki/Xbox_360'
p1246
I374
sS'/wiki/Pascal_language'
p1247
I775
sS'/wiki/Finland'
p1248
I931
sS'/wiki/MacBook_Pro'
p1249
I78
sS'/wiki/Mike_Markkula'
p1250
I419
sS'/wiki/KeyGrip'
p1251
I152
sS'/wiki/PowerVR'
p1252
I611
sS'/wiki/Apple_Lossless'
p1253
I187
sS'/wiki/NORAD_Tracks_Santa'
p1254
I880
sS'/wiki/MacWrite'
p1255
I777
sS'/wiki/Silicon'
p1256
I700
sS'/wiki/SpringBoard'
p1257
I657
sS'/wiki/MacPaint'
p1258
I778
sS'/wiki/FairPlay'
p1259
I278
sS'/wiki/Chrisann_Brennan'
p1260
I420
sS'/wiki/Kinect'
p1261
I375
sS'/wiki/Front_Row_(software)'
p1262
I219
sS'/wiki/QuickDraw'
p1263
I779
sS'/wiki/IPod_Touch'
p1264
I80
sS'/wiki/Game_console'
p1265
I376
sS'/wiki/Sergey_Brin'
p1266
I852
sS'/wiki/Mac_OS_X_Snow_Leopard'
p1267
I247
sS'/wiki/Nokia_N9'
p1268
I926
sS'/wiki/Apple_Music'
p1269
I190
sS'/wiki/Nokia_Siemens_Networks'
p1270
I927
sS'/wiki/NTFS'
p1271
I486
sS'/wiki/Mini_DisplayPort'
p1272
I801
sS'/wiki/IPod_Touch_(6th_generation)'
p1273
I660
sS'/wiki/MSN'
p1274
I377
sS'/wiki/Cellphone'
p1275
I328
sS'/wiki/Google'
p1276
I82
sS'/wiki/Alcatel-Lucent'
p1277
I930
sS'/wiki/Kevin_Rollins'
p1278
I651
sS'/wiki/Apple_Remote'
p1279
I225
sS'/wiki/Mona_Simpson'
p1280
I423
sS'/wiki/IOS_version_history'
p1281
I839
sS'/wiki/Digital_Equipment_Corporation'
p1282
I487
sS'/wiki/Macworld'
p1283
I132
sS'/wiki/Cover_Flow'
p1284
I197
sS'/wiki/Linux'
p1285
I330
sS'/wiki/Macworld_Conference_%26_Expo'
p1286
I201
sS'/wiki/Device_driver'
p1287
I488
sS'/wiki/Virtual_memory'
p1288
I489
sS'/wiki/IPod_Shuffle'
p1289
I283
sS'/wiki/MacBook'
p1290
I84
sS'/wiki/Real-time_operating_system'
p1291
I490
sS'/wiki/IOS_8'
p1292
I568
sS'/wiki/Apple_Inc.'
p1293
I102
sS'/wiki/Mac_OS_X_10.0'
p1294
I978
sS'/wiki/Fair_Labor_Association'
p1295
I898
sS'/wiki/Cloud_computing'
p1296
I378
sS'/wiki/Wolfram_Alpha'
p1297
I103
sS'/wiki/Microsoft_Store'
p1298
I356
sS'/wiki/Paul_Allen'
p1299
I369
sS'/wiki/NetBSD'
p1300
I455
sS'/wiki/Supervisor_mode'
p1301
I456
sS'/wiki/Watson_(artificial_intelligence_software)'
p1302
I516
sS'/wiki/Final_Cut_Express'
p1303
I158
sS'/wiki/IPad_Air'
p1304
I583
sS'/wiki/Google_privacy'
p1305
I857
sS'/wiki/Eric_Schmidt'
p1306
I888
sS'/wiki/MeeGo'
p1307
I934
sS'/wiki/Computer_graphics'
p1308
I785
sS'/wiki/IMac_G4'
p1309
I786
sS'/wiki/Smart_TV'
p1310
I331
sS'/wiki/Apple_A6X'
p1311
I614
sS'/wiki/IPhone_4S'
p1312
I90
sS'/wiki/IPhone_4'
p1313
I91
sS'/wiki/IPhone_5'
p1314
I92
sS'/wiki/Palo_Alto,_California'
p1315
I711
sS'/wiki/Power_Mac_G4_Cube'
p1316
I788
sS'/wiki/Motorola_68000'
p1317
I789
sS'/wiki/Robert_Friedland'
p1318
I427
sS'/wiki/WatchOS'
p1319
I391
sS'/wiki/Mac_Mini'
p1320
I771
sS'/wiki/OS_X_Tiger'
p1321
I979
sS'/wiki/Google_(verb)'
p1322
I884
sS'/wiki/FreeBSD'
p1323
I494
sS'/wiki/Microsoft_Office'
p1324
I379
sS'/wiki/Microsoft_Office_Word'
p1325
I380
sS'/wiki/Computer_network'
p1326
I495
sS'/wiki/Armonk,_New_York'
p1327
I518
sS'/wiki/Google_Maps'
p1328
I871
sS'/wiki/Lenovo'
p1329
I512
sS'/wiki/SPSS'
p1330
I519
sS'/wiki/Silicon_Valley'
p1331
I65
sS'/wiki/Mac_OS_X'
p1332
I177
sS'/wiki/Remote_procedure_call'
p1333
I492
sS'/wiki/Non-linear_editing'
p1334
I162
sS'/wiki/Data_center'
p1335
I371
sS'/wiki/MacOS'
p1336
I96
sS'/wiki/Hewlett-Packard'
p1337
I440
sS'/wiki/Music_video'
p1338
I215
sS'/wiki/Notification_Center'
p1339
I668
sS'/wiki/Google_Drive'
p1340
I886
sS'/wiki/Windows_CE'
p1341
I382
sS'/wiki/XBMC_Media_Center'
p1342
I240
sS'/wiki/MagSafe'
p1343
I828
sS'/wiki/Michael_Dell'
p1344
I646
sS'/wiki/Internet_Explorer'
p1345
I383
sS'/wiki/Withings'
p1346
I943
sS'/wiki/WebOS'
p1347
I333
sS'/wiki/Windows_10'
p1348
I334
sS'/wiki/Worldwide_Developers_Conference'
p1349
I422
sS'/wiki/Spotlight_(software)'
p1350
I670
sS'/wiki/IOS_7'
p1351
I118
sS'/wiki/IOS_6'
p1352
I105
sS'/wiki/IOS_5'
p1353
I671
sS'/wiki/IOS_4'
p1354
I672
sS'/wiki/DoubleClick'
p1355
I881
sS'/wiki/IOS_9'
p1356
I567
sS'/wiki/Herm%C3%A8s'
p1357
I393
sS'/wiki/Virtual_reality'
p1358
I887
sS'/wiki/NeXT_Computer'
p1359
I185
sS'/wiki/Samsung_Electronics'
p1360
I335
sS'/wiki/IPhone_SE'
p1361
I345
sS'/wiki/Bing_(search_engine)'
p1362
I385
sS'/wiki/IBooks'
p1363
I216
sS'/wiki/Lenovo_Group'
p1364
I656
sS'/wiki/Austin,_Texas'
p1365
I630
sS'/wiki/Motorola_Mobility'
p1366
I890
st.